###############################################################################
#                                                                             #
# IAR C/C++ Compiler V8.10.1.10194/W32 for 8051         16/Nov/2018  10:06:55 #
# Copyright 2004-2011 IAR Systems AB.                                         #
#                                                                             #
#    Core               =  plain                                              #
#    Code model         =  banked                                             #
#    Data model         =  large                                              #
#    Calling convention =  xdata reentrant                                    #
#    Constant location  =  data_rom                                           #
#    Dptr setup         =  1,16                                               #
#    Source file        =  D:\zigbee\cc2530_study\ZStack\Projects\zstack\Samp #
#                          les\SampleAppTest06\Source\SampleAppRouter.c       #
#    Command line       =  -f D:\zigbee\cc2530_study\ZStack\Projects\zstack\S #
#                          amples\SampleAppTest06\CC2530DB\..\..\..\Tools\CC2 #
#                          530DB\f8wRouter.cfg (-DCPU32MHZ                    #
#                          -DROOT=__near_func -DMAC_CFG_APP_PENDING_QUEUE=TRU #
#                          E -DMAC_CFG_TX_DATA_MAX=5 -DMAC_CFG_TX_MAX=8       #
#                          -DMAC_CFG_RX_MAX=5 -DRTR_NWK) -f                   #
#                          D:\zigbee\cc2530_study\ZStack\Projects\zstack\Samp #
#                          les\SampleAppTest06\CC2530DB\..\..\..\Tools\CC2530 #
#                          DB\f8wConfig.cfg (-DZIGBEEPRO -DSECURE=0           #
#                          -DZG_SECURE_DYNAMIC=0 -DREFLECTOR                  #
#                          -DDEFAULT_CHANLIST=0x00002000                      #
#                          -DZDAPP_CONFIG_PAN_ID=0x0013                       #
#                          -DNWK_START_DELAY=100 -DEXTENDED_JOINING_RANDOM_MA #
#                          SK=0x007F -DBEACON_REQUEST_DELAY=100               #
#                          -DBEACON_REQ_DELAY_MASK=0x00FF                     #
#                          -DLINK_STATUS_JITTER_MASK=0x007F                   #
#                          -DROUTE_EXPIRY_TIME=30 -DAPSC_ACK_WAIT_DURATION_PO #
#                          LLED=3000 -DNWK_INDIRECT_MSG_TIMEOUT=7             #
#                          -DMAX_RREQ_ENTRIES=8 -DAPSC_MAX_FRAME_RETRIES=3    #
#                          -DNWK_MAX_DATA_RETRIES=2                           #
#                          -DMAX_POLL_FAILURE_RETRIES=2 -DMAX_BCAST=9         #
#                          -DAPS_MAX_GROUPS=16 -DMAX_RTG_ENTRIES=40           #
#                          -DNWK_MAX_BINDING_ENTRIES=4                        #
#                          -DMAX_BINDING_CLUSTER_IDS=4 "-DDEFAULT_KEY={0x01,  #
#                          0x03, 0x05, 0x07, 0x09, 0x0B, 0x0D, 0x0F, 0x00,    #
#                          0x02, 0x04, 0x06, 0x08, 0x0A, 0x0C, 0x0D}"         #
#                          -DMAC_MAX_FRAME_SIZE=116                           #
#                          -DZDNWKMGR_MIN_TRANSMISSIONS=20 "-DCONST=const     #
#                          __code" -DGENERIC=__generic                        #
#                          -DRFD_RCVC_ALWAYS_ON=FALSE -DPOLL_RATE=1000        #
#                          -DQUEUED_POLL_RATE=100 -DRESPONSE_POLL_RATE=100)   #
#                          -DREJOIN_POLL_RATE=440 D:\zigbee\cc2530_study\ZSta #
#                          ck\Projects\zstack\Samples\SampleAppTest06\Source\ #
#                          SampleAppRouter.c -D ZTOOL_P1 -D xMT_TASK -D       #
#                          xMT_SYS_FUNC -D xMT_ZDO_FUNC -D                    #
#                          xLCD_SUPPORTED=DEBUG -lC                           #
#                          D:\zigbee\cc2530_study\ZStack\Projects\zstack\Samp #
#                          les\SampleAppTest06\CC2530DB\RouterEB\List\ -lA    #
#                          D:\zigbee\cc2530_study\ZStack\Projects\zstack\Samp #
#                          les\SampleAppTest06\CC2530DB\RouterEB\List\        #
#                          --diag_suppress Pe001,Pa010 -o                     #
#                          D:\zigbee\cc2530_study\ZStack\Projects\zstack\Samp #
#                          les\SampleAppTest06\CC2530DB\RouterEB\Obj\ -e      #
#                          --no_code_motion --debug --core=plain --dptr=16,1  #
#                          --data_model=large --code_model=banked             #
#                          --calling_convention=xdata_reentrant               #
#                          --place_constants=data_rom --nr_virtual_regs 16    #
#                          -I D:\zigbee\cc2530_study\ZStack\Projects\zstack\S #
#                          amples\SampleAppTest06\CC2530DB\ -I                #
#                          D:\zigbee\cc2530_study\ZStack\Projects\zstack\Samp #
#                          les\SampleAppTest06\CC2530DB\..\Source\ -I         #
#                          D:\zigbee\cc2530_study\ZStack\Projects\zstack\Samp #
#                          les\SampleAppTest06\CC2530DB\..\..\..\ZMain\TI2530 #
#                          DB\ -I D:\zigbee\cc2530_study\ZStack\Projects\zsta #
#                          ck\Samples\SampleAppTest06\CC2530DB\..\..\..\..\.. #
#                          \Components\hal\include\ -I                        #
#                          D:\zigbee\cc2530_study\ZStack\Projects\zstack\Samp #
#                          les\SampleAppTest06\CC2530DB\..\..\..\..\..\Compon #
#                          ents\hal\target\CC2530EB\ -I                       #
#                          D:\zigbee\cc2530_study\ZStack\Projects\zstack\Samp #
#                          les\SampleAppTest06\CC2530DB\..\..\..\..\..\Compon #
#                          ents\mac\include\ -I D:\zigbee\cc2530_study\ZStack #
#                          \Projects\zstack\Samples\SampleAppTest06\CC2530DB\ #
#                          ..\..\..\..\..\Components\mac\high_level\ -I       #
#                          D:\zigbee\cc2530_study\ZStack\Projects\zstack\Samp #
#                          les\SampleAppTest06\CC2530DB\..\..\..\..\..\Compon #
#                          ents\mac\low_level\srf04\ -I                       #
#                          D:\zigbee\cc2530_study\ZStack\Projects\zstack\Samp #
#                          les\SampleAppTest06\CC2530DB\..\..\..\..\..\Compon #
#                          ents\mac\low_level\srf04\single_chip\ -I           #
#                          D:\zigbee\cc2530_study\ZStack\Projects\zstack\Samp #
#                          les\SampleAppTest06\CC2530DB\..\..\..\..\..\Compon #
#                          ents\mt\ -I D:\zigbee\cc2530_study\ZStack\Projects #
#                          \zstack\Samples\SampleAppTest06\CC2530DB\..\..\..\ #
#                          ..\..\Components\osal\include\ -I                  #
#                          D:\zigbee\cc2530_study\ZStack\Projects\zstack\Samp #
#                          les\SampleAppTest06\CC2530DB\..\..\..\..\..\Compon #
#                          ents\services\saddr\ -I D:\zigbee\cc2530_study\ZSt #
#                          ack\Projects\zstack\Samples\SampleAppTest06\CC2530 #
#                          DB\..\..\..\..\..\Components\services\sdata\ -I    #
#                          D:\zigbee\cc2530_study\ZStack\Projects\zstack\Samp #
#                          les\SampleAppTest06\CC2530DB\..\..\..\..\..\Compon #
#                          ents\stack\af\ -I D:\zigbee\cc2530_study\ZStack\Pr #
#                          ojects\zstack\Samples\SampleAppTest06\CC2530DB\..\ #
#                          ..\..\..\..\Components\stack\nwk\ -I               #
#                          D:\zigbee\cc2530_study\ZStack\Projects\zstack\Samp #
#                          les\SampleAppTest06\CC2530DB\..\..\..\..\..\Compon #
#                          ents\stack\sapi\ -I D:\zigbee\cc2530_study\ZStack\ #
#                          Projects\zstack\Samples\SampleAppTest06\CC2530DB\. #
#                          .\..\..\..\..\Components\stack\sec\ -I             #
#                          D:\zigbee\cc2530_study\ZStack\Projects\zstack\Samp #
#                          les\SampleAppTest06\CC2530DB\..\..\..\..\..\Compon #
#                          ents\stack\sys\ -I D:\zigbee\cc2530_study\ZStack\P #
#                          rojects\zstack\Samples\SampleAppTest06\CC2530DB\.. #
#                          \..\..\..\..\Components\stack\zdo\ -I              #
#                          D:\zigbee\cc2530_study\ZStack\Projects\zstack\Samp #
#                          les\SampleAppTest06\CC2530DB\..\..\..\..\..\Compon #
#                          ents\zmac\ -I D:\zigbee\cc2530_study\ZStack\Projec #
#                          ts\zstack\Samples\SampleAppTest06\CC2530DB\..\..\. #
#                          .\..\..\Components\zmac\f8w\ -Ohz                  #
#    List file          =  D:\zigbee\cc2530_study\ZStack\Projects\zstack\Samp #
#                          les\SampleAppTest06\CC2530DB\RouterEB\List\SampleA #
#                          ppRouter.lst                                       #
#    Object file        =  D:\zigbee\cc2530_study\ZStack\Projects\zstack\Samp #
#                          les\SampleAppTest06\CC2530DB\RouterEB\Obj\SampleAp #
#                          pRouter.r51                                        #
#                                                                             #
#                                                                             #
###############################################################################

D:\zigbee\cc2530_study\ZStack\Projects\zstack\Samples\SampleAppTest06\Source\SampleAppRouter.c
      1          /**************************************************************************************************
      2            Filename:       SampleApp.c
      3            Revised:        $Date: 2009-03-18 15:56:27 -0700 (Wed, 18 Mar 2009) $
      4            Revision:       $Revision: 19453 $
      5          
      6            Description:    Sample Application (no Profile).
      7          
      8          
      9            Copyright 2007 Texas Instruments Incorporated. All rights reserved.
     10          
     11            IMPORTANT: Your use of this Software is limited to those specific rights
     12            granted under the terms of a software license agreement between the user
     13            who downloaded the software, his/her employer (which must be your employer)
     14            and Texas Instruments Incorporated (the "License").  You may not use this
     15            Software unless you agree to abide by the terms of the License. The License
     16            limits your use, and you acknowledge, that the Software may not be modified,
     17            copied or distributed unless embedded on a Texas Instruments microcontroller
     18            or used solely and exclusively in conjunction with a Texas Instruments radio
     19            frequency transceiver, which is integrated into your product.  Other than for
     20            the foregoing purpose, you may not use, reproduce, copy, prepare derivative
     21            works of, modify, distribute, perform, display or sell this Software and/or
     22            its documentation for any purpose.
     23          
     24            YOU FURTHER ACKNOWLEDGE AND AGREE THAT THE SOFTWARE AND DOCUMENTATION ARE
     25            PROVIDED AS IS?WITHOUT WARRANTY OF ANY KIND, EITHER EXPRESS OR IMPLIED,
     26            INCLUDING WITHOUT LIMITATION, ANY WARRANTY OF MERCHANTABILITY, TITLE,
     27            NON-INFRINGEMENT AND FITNESS FOR A PARTICULAR PURPOSE. IN NO EVENT SHALL
     28            TEXAS INSTRUMENTS OR ITS LICENSORS BE LIABLE OR OBLIGATED UNDER CONTRACT,
     29            NEGLIGENCE, STRICT LIABILITY, CONTRIBUTION, BREACH OF WARRANTY, OR OTHER
     30            LEGAL EQUITABLE THEORY ANY DIRECT OR INDIRECT DAMAGES OR EXPENSES
     31            INCLUDING BUT NOT LIMITED TO ANY INCIDENTAL, SPECIAL, INDIRECT, PUNITIVE
     32            OR CONSEQUENTIAL DAMAGES, LOST PROFITS OR LOST DATA, COST OF PROCUREMENT
     33            OF SUBSTITUTE GOODS, TECHNOLOGY, SERVICES, OR ANY CLAIMS BY THIRD PARTIES
     34            (INCLUDING BUT NOT LIMITED TO ANY DEFENSE THEREOF), OR OTHER SIMILAR COSTS.
     35          
     36            Should you have any questions regarding your right to use this Software,
     37            contact Texas Instruments Incorporated at www.TI.com.
     38          **************************************************************************************************/
     39          
     40          /*********************************************************************
     41            This application isn't intended to do anything useful, it is
     42            intended to be a simple example of an application's structure.
     43          
     44            This application sends it's messages either as broadcast or
     45            broadcast filtered group messages.  The other (more normal)
     46            message addressing is unicast.  Most of the other sample
     47            applications are written to support the unicast message model.
     48          
     49            Key control:
     50              SW1:  Sends a flash command to all devices in Group 1.
     51              SW2:  Adds/Removes (toggles) this device in and out
     52                    of Group 1.  This will enable and disable the
     53                    reception of the flash command.
     54          *********************************************************************/
     55          
     56          /*********************************************************************
     57           * INCLUDES
     58           */
     59          #include "OSAL.h"
     60          #include "ZGlobals.h"
     61          #include "AF.h"
     62          #include "aps_groups.h"
     63          #include "ZDApp.h"
     64          
     65          #include "SampleApp.h"
     66          #include "SampleAppHw.h"
     67          
     68          #include "OnBoard.h"
     69          
     70          /* HAL */
     71          #include "hal_lcd.h"
     72          #include "hal_led.h"
     73          #include "hal_key.h"
     74          #include "MT_APP.h"
     75          #include "MT_UART.h"
     76          #include "MT.h"
     77          
     78          
     79          #include <string.h>
     80          /*********************************************************************
     81           * MACROS
     82           */
     83          
     84          /*********************************************************************
     85           * CONSTANTS
     86           */
     87          
     88          /*********************************************************************
     89           * TYPEDEFS
     90           */
     91          
     92          /*********************************************************************
     93           * GLOBAL VARIABLES
     94           */
     95          
     96          // This list should be filled with Application specific Cluster IDs.

   \                                 In  segment XDATA_ROM_C, align 1
     97          const cId_t SampleApp_ClusterList[SAMPLEAPP_MAX_CLUSTERS] =
   \                     SampleApp_ClusterList:
   \   000000   0100         DW 1
   \   000002   0200         DW 2
   \   000004   0000         DW 0
     98          {
     99            SAMPLEAPP_PERIODIC_CLUSTERID,
    100            SAMPLEAPP_FLASH_CLUSTERID
    101          };
    102          

   \                                 In  segment XDATA_ROM_C, align 1
    103          const SimpleDescriptionFormat_t SampleApp_SimpleDesc =
   \                     SampleApp_SimpleDesc:
   \   000000   14           DB 20
   \   000001   080F         DW 3848
   \   000003   0100         DW 1
   \   000005   00           DB 0
   \   000006   03           DB 3
   \   000007   ....         DW SampleApp_ClusterList
   \   000009   03           DB 3
   \   00000A   ....         DW SampleApp_ClusterList
    104          {
    105            SAMPLEAPP_ENDPOINT,              //  int Endpoint;
    106            SAMPLEAPP_PROFID,                //  uint16 AppProfId[2];
    107            SAMPLEAPP_DEVICEID,              //  uint16 AppDeviceId[2];
    108            SAMPLEAPP_DEVICE_VERSION,        //  int   AppDevVer:4;
    109            SAMPLEAPP_FLAGS,                 //  int   AppFlags:4;
    110            SAMPLEAPP_MAX_CLUSTERS,          //  uint8  AppNumInClusters;
    111            (cId_t *)SampleApp_ClusterList,  //  uint8 *pAppInClusterList;
    112            SAMPLEAPP_MAX_CLUSTERS,          //  uint8  AppNumInClusters;
    113            (cId_t *)SampleApp_ClusterList   //  uint8 *pAppInClusterList;
    114          };
    115          
    116          // This is the Endpoint/Interface description.  It is defined here, but
    117          // filled-in in SampleApp_Init().  Another way to go would be to fill
    118          // in the structure here and make it a "const" (in code space).  The
    119          // way it's defined in this sample app it is define in RAM.

   \                                 In  segment XDATA_Z, align 1, keep-with-next
    120          endPointDesc_t SampleApp_epDesc;
   \                     SampleApp_epDesc:
   \   000000                DS 6
   \   000006                REQUIRE __INIT_XDATA_Z
    121          
    122          /*********************************************************************
    123           * EXTERNAL VARIABLES
    124           */
    125          
    126          /*********************************************************************
    127           * EXTERNAL FUNCTIONS
    128           */
    129          
    130          /*********************************************************************
    131           * LOCAL VARIABLES
    132           */

   \                                 In  segment XDATA_Z, align 1, keep-with-next
    133          uint8 SampleApp_TaskID;   // Task ID for internal task/event processing
   \                     SampleApp_TaskID:
   \   000000                DS 1
   \   000001                REQUIRE __INIT_XDATA_Z
    134                                    // This variable will be received when
    135                                    // SampleApp_Init() is called.

   \                                 In  segment XDATA_Z, align 1, keep-with-next
    136          devStates_t SampleApp_NwkState;
   \                     SampleApp_NwkState:
   \   000000                DS 1
   \   000001                REQUIRE __INIT_XDATA_Z
    137          

   \                                 In  segment XDATA_Z, align 1, keep-with-next
    138          uint8 SampleApp_TransID;  // This is the unique message ID (counter)
   \                     SampleApp_TransID:
   \   000000                DS 1
   \   000001                REQUIRE __INIT_XDATA_Z
    139          

   \                                 In  segment XDATA_Z, align 1, keep-with-next
    140          afAddrType_t SampleApp_Periodic_DstAddr;
   \                     SampleApp_Periodic_DstAddr:
   \   000000                DS 12
   \   00000C                REQUIRE __INIT_XDATA_Z

   \                                 In  segment XDATA_Z, align 1, keep-with-next
    141          afAddrType_t SampleApp_Flash_DstAddr;
   \                     SampleApp_Flash_DstAddr:
   \   000000                DS 12
   \   00000C                REQUIRE __INIT_XDATA_Z
    142          

   \                                 In  segment XDATA_Z, align 1, keep-with-next
    143          afAddrType_t SampleApp_String_DstAddr;
   \                     SampleApp_String_DstAddr:
   \   000000                DS 12
   \   00000C                REQUIRE __INIT_XDATA_Z

   \                                 In  segment XDATA_Z, align 1, keep-with-next
    144          afAddrType_t SampleAPP_Coordinator_DstAddr;
   \                     SampleAPP_Coordinator_DstAddr:
   \   000000                DS 12
   \   00000C                REQUIRE __INIT_XDATA_Z
    145          

   \                                 In  segment XDATA_Z, align 1, keep-with-next
    146          aps_Group_t SampleApp_Group;
   \                     SampleApp_Group:
   \   000000                DS 18
   \   000012                REQUIRE __INIT_XDATA_Z
    147          

   \                                 In  segment XDATA_Z, align 1, keep-with-next
    148          uint8 SampleAppPeriodicCounter = 0;
   \                     SampleAppPeriodicCounter:
   \   000000                DS 1
   \   000001                REQUIRE __INIT_XDATA_Z

   \                                 In  segment XDATA_Z, align 1, keep-with-next
    149          uint8 SampleAppFlashCounter = 0;
   \                     SampleAppFlashCounter:
   \   000000                DS 1
   \   000001                REQUIRE __INIT_XDATA_Z
    150          
    151          /*********************************************************************
    152           * LOCAL FUNCTIONS
    153           */
    154          void SampleApp_HandleKeys( uint8 shift, uint8 keys );
    155          void SampleApp_MessageMSGCB( afIncomingMSGPacket_t *pckt );
    156          void SampleApp_SendPeriodicMessage( void );
    157          void SampleApp_SendFlashMessage( uint16 flashTime );
    158          void SampleApp_SendStringMessage( uint8* str,uint8 len );
    159          void SampleApp_SendStringToCoordinator( uint8* str,uint8 len );
    160          uint8 lightRead();
    161          /*********************************************************************
    162           * NETWORK LAYER CALLBACKS
    163           */
    164          
    165          /*********************************************************************
    166           * PUBLIC FUNCTIONS
    167           */
    168          
    169          /*********************************************************************
    170           * @fn      SampleApp_Init
    171           *
    172           * @brief   Initialization function for the Generic App Task.
    173           *          This is called during initialization and should contain
    174           *          any application specific initialization (ie. hardware
    175           *          initialization/setup, table initialization, power up
    176           *          notificaiton ... ).
    177           *
    178           * @param   task_id - the ID assigned by OSAL.  This ID should be
    179           *                    used to send messages and set timers.
    180           *
    181           * @return  none
    182           */

   \                                 In  segment BANKED_CODE, align 1, keep-with-next
    183          void SampleApp_Init( uint8 task_id )
   \                     SampleApp_Init:
    184          {
   \   000000   74F5         MOV     A,#-0xb
   \   000002   12....       LCALL   ?BANKED_ENTER_XDATA
   \   000005                ; Saved register size: 11
   \   000005                ; Auto size: 0
   \   000005   E9           MOV     A,R1
    185            SampleApp_TaskID = task_id;
   \   000006   90....       MOV     DPTR,#SampleApp_TaskID
   \   000009   F0           MOVX    @DPTR,A
    186            SampleApp_NwkState = DEV_INIT;
   \   00000A   90....       MOV     DPTR,#SampleApp_NwkState
   \   00000D   7401         MOV     A,#0x1
   \   00000F   F0           MOVX    @DPTR,A
    187            SampleApp_TransID = 0;
   \   000010   90....       MOV     DPTR,#SampleApp_TransID
   \   000013   E4           CLR     A
   \   000014   F0           MOVX    @DPTR,A
    188          
    189            // Device hardware initialization can be added here or in main() (Zmain.c).
    190            // If the hardware is application specific - add it here.
    191            // If the hardware is other parts of the device add it in main().
    192          
    193           #if defined ( BUILD_ALL_DEVICES )
    194            // The "Demo" target is setup to have BUILD_ALL_DEVICES and HOLD_AUTO_START
    195            // We are looking at a jumper (defined in SampleAppHw.c) to be jumpered
    196            // together - if they are - we will start up a coordinator. Otherwise,
    197            // the device will start as a router.
    198            if ( readCoordinatorJumper() )
    199              zgDeviceLogicalType = ZG_DEVICETYPE_COORDINATOR;
    200            else
    201              zgDeviceLogicalType = ZG_DEVICETYPE_ROUTER;
    202          #endif // BUILD_ALL_DEVICES
    203          
    204          #if defined ( HOLD_AUTO_START )
    205            // HOLD_AUTO_START is a compile option that will surpress ZDApp
    206            //  from starting the device and wait for the application to
    207            //  start the device.
    208            ZDOInitDevice(0);
    209          #endif
    210          
    211            // Setup for the periodic message's destination address
    212            // Broadcast to everyone
    213            SampleApp_Periodic_DstAddr.addrMode = (afAddrMode_t)AddrBroadcast;
   \   000015   90....       MOV     DPTR,#SampleApp_Periodic_DstAddr + 8
   \   000018   12....       LCALL   ?Subroutine3 & 0xFFFF
    214            SampleApp_Periodic_DstAddr.endPoint = SAMPLEAPP_ENDPOINT;
    215            SampleApp_Periodic_DstAddr.addr.shortAddr = 0xFFFF;
   \                     ??CrossCallReturnLabel_2:
   \   00001B   90....       MOV     DPTR,#SampleApp_Periodic_DstAddr
   \   00001E   74FF         MOV     A,#-0x1
   \   000020   F0           MOVX    @DPTR,A
   \   000021   A3           INC     DPTR
   \   000022   F0           MOVX    @DPTR,A
    216          
    217            // Setup for the flash command's destination address - Group 1
    218            SampleApp_Flash_DstAddr.addrMode = (afAddrMode_t)afAddrGroup;
   \   000023   90....       MOV     DPTR,#SampleApp_Flash_DstAddr + 8
   \   000026   7401         MOV     A,#0x1
   \   000028   12....       LCALL   ??Subroutine4_0 & 0xFFFF
    219            SampleApp_Flash_DstAddr.endPoint = SAMPLEAPP_ENDPOINT;
    220            SampleApp_Flash_DstAddr.addr.shortAddr = SAMPLEAPP_FLASH_GROUP;
   \                     ??CrossCallReturnLabel_4:
   \   00002B   90....       MOV     DPTR,#SampleApp_Flash_DstAddr
   \   00002E   7401         MOV     A,#0x1
   \   000030   F0           MOVX    @DPTR,A
   \   000031   A3           INC     DPTR
   \   000032   E4           CLR     A
   \   000033   F0           MOVX    @DPTR,A
    221            
    222            SampleApp_String_DstAddr.addrMode = (afAddrMode_t)AddrBroadcast;
   \   000034   90....       MOV     DPTR,#SampleApp_String_DstAddr + 8
   \   000037   12....       LCALL   ?Subroutine3 & 0xFFFF
    223            SampleApp_String_DstAddr.endPoint = SAMPLEAPP_ENDPOINT;
    224            SampleApp_String_DstAddr.addr.shortAddr = 0xFFFF;
   \                     ??CrossCallReturnLabel_3:
   \   00003A   90....       MOV     DPTR,#SampleApp_String_DstAddr
   \   00003D   74FF         MOV     A,#-0x1
   \   00003F   F0           MOVX    @DPTR,A
   \   000040   A3           INC     DPTR
   \   000041   F0           MOVX    @DPTR,A
    225          
    226            SampleAPP_Coordinator_DstAddr.addrMode = (afAddrMode_t)afAddrGroup;
   \   000042   90....       MOV     DPTR,#SampleAPP_Coordinator_DstAddr + 8
   \   000045   7401         MOV     A,#0x1
   \   000047   12....       LCALL   ??Subroutine4_0 & 0xFFFF
    227            SampleAPP_Coordinator_DstAddr.endPoint = SAMPLEAPP_ENDPOINT;
    228            SampleAPP_Coordinator_DstAddr.addr.shortAddr = SAMPLEAPP_FLASH_GROUP;
   \                     ??CrossCallReturnLabel_5:
   \   00004A   90....       MOV     DPTR,#SampleAPP_Coordinator_DstAddr
   \   00004D   7401         MOV     A,#0x1
   \   00004F   F0           MOVX    @DPTR,A
   \   000050   A3           INC     DPTR
   \   000051   E4           CLR     A
   \   000052   F0           MOVX    @DPTR,A
    229            
    230            // Fill out the endpoint description.
    231            SampleApp_epDesc.endPoint = SAMPLEAPP_ENDPOINT;
   \   000053   90....       MOV     DPTR,#SampleApp_epDesc
   \   000056   7414         MOV     A,#0x14
   \   000058   F0           MOVX    @DPTR,A
    232            SampleApp_epDesc.task_id = &SampleApp_TaskID;
   \   000059   A3           INC     DPTR
   \   00005A   74..         MOV     A,#SampleApp_TaskID & 0xff
   \   00005C   F0           MOVX    @DPTR,A
   \   00005D   A3           INC     DPTR
   \   00005E   74..         MOV     A,#(SampleApp_TaskID >> 8) & 0xff
   \   000060   F0           MOVX    @DPTR,A
    233            SampleApp_epDesc.simpleDesc
    234                      = (SimpleDescriptionFormat_t *)&SampleApp_SimpleDesc;
   \   000061   A3           INC     DPTR
   \   000062   74..         MOV     A,#SampleApp_SimpleDesc & 0xff
   \   000064   F0           MOVX    @DPTR,A
   \   000065   A3           INC     DPTR
   \   000066   74..         MOV     A,#(SampleApp_SimpleDesc >> 8) & 0xff
   \   000068   F0           MOVX    @DPTR,A
    235            SampleApp_epDesc.latencyReq = noLatencyReqs;
   \   000069   A3           INC     DPTR
   \   00006A   E4           CLR     A
   \   00006B   F0           MOVX    @DPTR,A
    236          
    237            // Register the endpoint description with the AF
    238            afRegister( &SampleApp_epDesc );
   \   00006C                ; Setup parameters for call to function afRegister
   \   00006C   7A..         MOV     R2,#SampleApp_epDesc & 0xff
   \   00006E   7B..         MOV     R3,#(SampleApp_epDesc >> 8) & 0xff
   \   000070   12....       LCALL   ??afRegister?relay
    239          
    240            // Register for all key events - This app will handle all key events
    241            RegisterForKeys( SampleApp_TaskID );
   \   000073                ; Setup parameters for call to function RegisterForKeys
   \   000073   90....       MOV     DPTR,#SampleApp_TaskID
   \   000076   E0           MOVX    A,@DPTR
   \   000077   F9           MOV     R1,A
   \   000078   12....       LCALL   ??RegisterForKeys?relay
    242          
    243            // By default, all devices start out in Group 1
    244            //SampleApp_Group.ID = 0x0001 ;
    245            //osal_memcpy( SampleApp_Group.name, "Group 1", 7  );
    246            //aps_AddGroup( SAMPLEAPP_ENDPOINT, &SampleApp_Group );
    247            SampleApp_Group.ID = SAMPLEAPP_FLASH_GROUP ;
   \   00007B   90....       MOV     DPTR,#SampleApp_Group
   \   00007E   7401         MOV     A,#0x1
   \   000080   F0           MOVX    @DPTR,A
   \   000081   A3           INC     DPTR
   \   000082   E4           CLR     A
   \   000083   F0           MOVX    @DPTR,A
    248            osal_memcpy( SampleApp_Group.name, "Group 1", 7  );
   \   000084                ; Setup parameters for call to function osal_memcpy
   \   000084   75....       MOV     ?V0 + 0,#`?<Constant "Group 1">` & 0xff
   \   000087   75....       MOV     ?V0 + 1,#(`?<Constant "Group 1">` >> 8) & 0xff
   \   00008A   F5..         MOV     ?V0 + 2,A
   \   00008C   78..         MOV     R0,#?V0 + 0
   \   00008E   12....       LCALL   ?PUSH_XSTACK_I_THREE
   \   000091   7C07         MOV     R4,#0x7
   \   000093   7D00         MOV     R5,#0x0
   \   000095   7A..         MOV     R2,#(SampleApp_Group + 2) & 0xff
   \   000097   7B..         MOV     R3,#((SampleApp_Group + 2) >> 8) & 0xff
   \   000099   12....       LCALL   ??osal_memcpy?relay
   \   00009C   7403         MOV     A,#0x3
   \   00009E   12....       LCALL   ?DEALLOC_XSTACK8
    249            //aps_AddGroup( SAMPLEAPP_ENDPOINT, &SampleApp_Group );
    250          
    251          #if defined ( LCD_SUPPORTED )
    252            HalLcdWriteString( "SampleApp", HAL_LCD_LINE_1 );
    253          #endif
    254            
    255            RegisterForKeys( SampleApp_TaskID );
   \   0000A1                ; Setup parameters for call to function RegisterForKeys
   \   0000A1   90....       MOV     DPTR,#SampleApp_TaskID
   \   0000A4   E0           MOVX    A,@DPTR
   \   0000A5   F9           MOV     R1,A
   \   0000A6   12....       LCALL   ??RegisterForKeys?relay
    256            MT_UartInit();
   \   0000A9                ; Setup parameters for call to function MT_UartInit
   \   0000A9   12....       LCALL   ??MT_UartInit?relay
    257            MT_UartRegisterTaskID( SampleApp_TaskID );
   \   0000AC                ; Setup parameters for call to function MT_UartRegisterTaskID
   \   0000AC   90....       MOV     DPTR,#SampleApp_TaskID
   \   0000AF   E0           MOVX    A,@DPTR
   \   0000B0   F9           MOV     R1,A
   \   0000B1   12....       LCALL   ??MT_UartRegisterTaskID?relay
    258            HalUARTWrite(0,"UART IS OK!\r\n",strlen("UART IS OK!\r\n"));
   \   0000B4                ; Setup parameters for call to function HalUARTWrite
   \   0000B4   7C0D         MOV     R4,#0xd
   \   0000B6   7D00         MOV     R5,#0x0
   \   0000B8   7A..         MOV     R2,#`?<Constant "UART IS OK!\\r\\n">` & 0xff
   \   0000BA   7B..         MOV     R3,#(`?<Constant "UART IS OK!\\r\\n">` >> 8) & 0xff
   \   0000BC   7900         MOV     R1,#0x0
   \   0000BE   12....       LCALL   ??HalUARTWrite?relay
    259            
    260            HalLedSet(HAL_LED_1,HAL_LED_MODE_OFF);
   \   0000C1                ; Setup parameters for call to function HalLedSet
   \   0000C1   7A00         MOV     R2,#0x0
   \   0000C3   7901         MOV     R1,#0x1
   \   0000C5   12....       LCALL   ??HalLedSet?relay
    261            HalLedSet(HAL_LED_2,HAL_LED_MODE_OFF);
   \   0000C8                ; Setup parameters for call to function HalLedSet
   \   0000C8   7A00         MOV     R2,#0x0
   \   0000CA   7902         MOV     R1,#0x2
   \   0000CC   12....       LCALL   ??HalLedSet?relay
    262            osal_start_timerEx( SampleApp_TaskID,
    263                                        SAMPLEAPP_LIGHT,
    264                                        1000 );
   \   0000CF                ; Setup parameters for call to function osal_start_timerEx
   \   0000CF   7CE8         MOV     R4,#-0x18
   \   0000D1   7D03         MOV     R5,#0x3
   \   0000D3   7A02         MOV     R2,#0x2
   \   0000D5   7B00         MOV     R3,#0x0
   \   0000D7   90....       MOV     DPTR,#SampleApp_TaskID
   \   0000DA   E0           MOVX    A,@DPTR
   \   0000DB   F9           MOV     R1,A
   \   0000DC   12....       LCALL   ??osal_start_timerEx?relay
    265          }
   \   0000DF                REQUIRE ?Subroutine0
   \   0000DF                ; // Fall through to label ?Subroutine0

   \                                 In  segment BANKED_CODE, align 1, keep-with-next
   \                     ?Subroutine0:
   \   000000   7F03         MOV     R7,#0x3
   \   000002   02....       LJMP    ?BANKED_LEAVE_XDATA

   \                                 In  segment BANKED_CODE, align 1, keep-with-next
   \                     ?Subroutine3:
   \   000000   740F         MOV     A,#0xf
   \   000002                REQUIRE ??Subroutine4_0
   \   000002                ; // Fall through to label ??Subroutine4_0

   \                                 In  segment BANKED_CODE, align 1, keep-with-next
   \                     ??Subroutine4_0:
   \   000000   F0           MOVX    @DPTR,A
   \   000001   A3           INC     DPTR
   \   000002   7414         MOV     A,#0x14
   \   000004   F0           MOVX    @DPTR,A
   \   000005   22           RET
    266          

   \                                 In  segment BANKED_CODE, align 1, keep-with-next
    267          void SampleApp_SerialCMD(mtOSALSerialData_t *cmdMsg)
   \                     SampleApp_SerialCMD:
    268          {
   \   000000   74F5         MOV     A,#-0xb
   \   000002   12....       LCALL   ?BANKED_ENTER_XDATA
   \   000005                ; Saved register size: 11
   \   000005                ; Auto size: 0
    269              uint8 len,*str=NULL; //len 有用数据长度
    270              str=cmdMsg->msg; //指向数据开头
   \   000005   8A82         MOV     DPL,R2
   \   000007   8B83         MOV     DPH,R3
   \   000009   A3           INC     DPTR
   \   00000A   A3           INC     DPTR
   \   00000B   E0           MOVX    A,@DPTR
   \   00000C   F8           MOV     R0,A
   \   00000D   A3           INC     DPTR
   \   00000E   E0           MOVX    A,@DPTR
   \   00000F   F9           MOV     R1,A
   \   000010   8882         MOV     DPL,R0
   \   000012   8983         MOV     DPH,R1
    271              len=*str; //msg 里的第 1 个字节代表后面的数据长度
   \   000014   E0           MOVX    A,@DPTR
   \   000015   F5..         MOV     ?V0 + 2,A
    272          /********打印出串口接收到的数据，用于提示*********/
    273              HalUARTWrite(HAL_UART_PORT_0,str+1,len);
   \   000017   A3           INC     DPTR
   \   000018   AE82         MOV     R6,DPL
   \   00001A   AF83         MOV     R7,DPH
   \   00001C                ; Setup parameters for call to function HalUARTWrite
   \   00001C   FC           MOV     R4,A
   \   00001D   7D00         MOV     R5,#0x0
   \   00001F   EE           MOV     A,R6
   \   000020   FA           MOV     R2,A
   \   000021   EF           MOV     A,R7
   \   000022   FB           MOV     R3,A
   \   000023   7900         MOV     R1,#0x0
   \   000025   12....       LCALL   ??HalUARTWrite?relay
    274              SampleApp_SendStringMessage(str+1,len);
   \   000028                ; Setup parameters for call to function SampleApp_SendStringMessage
   \   000028   A9..         MOV     R1,?V0 + 2
   \   00002A   EE           MOV     A,R6
   \   00002B   FA           MOV     R2,A
   \   00002C   EF           MOV     A,R7
   \   00002D   FB           MOV     R3,A
   \   00002E   12....       LCALL   ??SampleApp_SendStringMessage?relay
    275          }
   \   000031   80..         SJMP    ?Subroutine0
    276          

   \                                 In  segment BANKED_CODE, align 1, keep-with-next
    277          uint8 lightRead(){
   \                     lightRead:
   \   000000   C082         PUSH    DPL
   \   000002   C083         PUSH    DPH
   \   000004                ; Saved register size: 2
   \   000004                ; Auto size: 1
   \   000004   74FF         MOV     A,#-0x1
   \   000006   12....       LCALL   ?ALLOC_XSTACK8
    278          #include "hal_adc.h"
    279            uint8 light=0;
   \   000009   85..82       MOV     DPL,?XSP + 0
   \   00000C   85..83       MOV     DPH,?XSP + 1
   \   00000F   E4           CLR     A
   \   000010   F0           MOVX    @DPTR,A
    280            //HalAdcSetReference( HAL_ADC_REF_AVDD );
    281            light = HalAdcRead(HAL_ADC_CHANNEL_4, HAL_ADC_RESOLUTION_8);
   \   000011                ; Setup parameters for call to function HalAdcRead
   \   000011   7A01         MOV     R2,#0x1
   \   000013   7904         MOV     R1,#0x4
   \   000015   12....       LCALL   ??HalAdcRead?relay
   \   000018   EA           MOV     A,R2
   \   000019   85..82       MOV     DPL,?XSP + 0
   \   00001C   85..83       MOV     DPH,?XSP + 1
   \   00001F   F0           MOVX    @DPTR,A
    282            //HalUARTWrite(HAL_UART_PORT_0,&light,1);
    283            SampleApp_SendStringToCoordinator(&light,1);
   \   000020                ; Setup parameters for call to function SampleApp_SendStringToCoordinator
   \   000020   7901         MOV     R1,#0x1
   \   000022   AA82         MOV     R2,DPL
   \   000024   AB83         MOV     R3,DPH
   \   000026   12....       LCALL   ??SampleApp_SendStringToCoordinator?relay
    284            return light;
   \   000029   85..82       MOV     DPL,?XSP + 0
   \   00002C   85..83       MOV     DPH,?XSP + 1
   \   00002F   E0           MOVX    A,@DPTR
   \   000030   F9           MOV     R1,A
   \   000031   7401         MOV     A,#0x1
   \   000033   12....       LCALL   ?DEALLOC_XSTACK8
   \   000036   D083         POP     DPH
   \   000038   D082         POP     DPL
   \   00003A   02....       LJMP    ?BRET
    285          }
    286          
    287          /*********************************************************************
    288           * @fn      SampleApp_ProcessEvent
    289           *
    290           * @brief   Generic Application Task event processor.  This function
    291           *          is called to process all events for the task.  Events
    292           *          include timers, messages and any other user defined events.
    293           *
    294           * @param   task_id  - The OSAL assigned task ID.
    295           * @param   events - events to process.  This is a bit map and can
    296           *                   contain more than one event.
    297           *
    298           * @return  none
    299           */

   \                                 In  segment BANKED_CODE, align 1, keep-with-next
    300          uint16 SampleApp_ProcessEvent( uint8 task_id, uint16 events )
   \                     SampleApp_ProcessEvent:
    301          {
   \   000000   74F4         MOV     A,#-0xc
   \   000002   12....       LCALL   ?BANKED_ENTER_XDATA
   \   000005                ; Saved register size: 12
   \   000005                ; Auto size: 0
   \   000005   8A..         MOV     ?V0 + 0,R2
   \   000007   8B..         MOV     ?V0 + 1,R3
    302            afIncomingMSGPacket_t *MSGpkt;
    303            (void)task_id;  // Intentionally unreferenced parameter
    304          
    305            if ( events & SYS_EVENT_MSG )
   \   000009   EB           MOV     A,R3
   \   00000A   5480         ANL     A,#0x80
   \   00000C   6066         JZ      ??SampleApp_ProcessEvent_0
    306            {
    307              MSGpkt = (afIncomingMSGPacket_t *)osal_msg_receive( SampleApp_TaskID );
   \   00000E                ; Setup parameters for call to function osal_msg_receive
   \   00000E   800D         SJMP    ??SampleApp_ProcessEvent_1
    308              while ( MSGpkt )
    309              {
    310                switch ( MSGpkt->hdr.event )
    311                {
    312                  // Received when a key is pressed
    313                  case KEY_CHANGE:
    314                    SampleApp_HandleKeys( ((keyChange_t *)MSGpkt)->state, ((keyChange_t *)MSGpkt)->keys );
    315                    
    316                    break;
    317                  case CMD_SERIAL_MSG: //串口收到数据后由 MT_UART 层传递过来的/数据，编译时不定义 MT相关内容
    318                     SampleApp_SerialCMD((mtOSALSerialData_t *)MSGpkt);
    319                     break;
    320          
    321                  // Received when a messages is received (OTA) for this endpoint
    322                  case AF_INCOMING_MSG_CMD:
    323                    SampleApp_MessageMSGCB( MSGpkt );
    324                    break;
    325          
    326                  // Received whenever the device changes state in the network
    327                  case ZDO_STATE_CHANGE:
    328                    SampleApp_NwkState = (devStates_t)(MSGpkt->hdr.status);
   \                     ??SampleApp_ProcessEvent_2:
   \   000010   A3           INC     DPTR
   \   000011   E0           MOVX    A,@DPTR
   \   000012   90....       MOV     DPTR,#SampleApp_NwkState
   \   000015   F0           MOVX    @DPTR,A
    329                    if ( (SampleApp_NwkState == DEV_ZB_COORD)
    330                        || (SampleApp_NwkState == DEV_ROUTER)
    331                        || (SampleApp_NwkState == DEV_END_DEVICE) )
    332                    {
    333                      //HalLedBlink (HAL_LED_1, 3, 50, 1000); 
    334                      // Start sending the periodic message in a regular interval.
    335                      
    336                    }
    337                    else
    338                    {
    339                      // Device is no longer in the network
    340                    }
    341                    break;
    342          
    343                  default:
    344                    break;
    345                }
    346          
    347                // Release the memory
    348                osal_msg_deallocate( (uint8 *)MSGpkt );
   \                     ??SampleApp_ProcessEvent_3:
   \   000016                ; Setup parameters for call to function osal_msg_deallocate
   \   000016   EE           MOV     A,R6
   \   000017   FA           MOV     R2,A
   \   000018   EF           MOV     A,R7
   \   000019   FB           MOV     R3,A
   \   00001A   12....       LCALL   ??osal_msg_deallocate?relay
    349          
    350                // Next - if one is available
    351                MSGpkt = (afIncomingMSGPacket_t *)osal_msg_receive( SampleApp_TaskID );
   \   00001D                ; Setup parameters for call to function osal_msg_receive
   \                     ??SampleApp_ProcessEvent_1:
   \   00001D   90....       MOV     DPTR,#SampleApp_TaskID
   \   000020   E0           MOVX    A,@DPTR
   \   000021   F9           MOV     R1,A
   \   000022   12....       LCALL   ??osal_msg_receive?relay
   \   000025   8A..         MOV     ?V0 + 2,R2
   \   000027   8B..         MOV     ?V0 + 3,R3
   \   000029   AE..         MOV     R6,?V0 + 2
   \   00002B   AF..         MOV     R7,?V0 + 3
   \   00002D   EE           MOV     A,R6
   \   00002E   4F           ORL     A,R7
   \   00002F   603A         JZ      ??SampleApp_ProcessEvent_4
   \   000031   8E82         MOV     DPL,R6
   \   000033   8F83         MOV     DPH,R7
   \   000035   E0           MOVX    A,@DPTR
   \   000036   14           DEC     A
   \   000037   6020         JZ      ??SampleApp_ProcessEvent_5
   \   000039   24E7         ADD     A,#-0x19
   \   00003B   6025         JZ      ??SampleApp_ProcessEvent_6
   \   00003D   245A         ADD     A,#0x5a
   \   00003F   6006         JZ      ??SampleApp_ProcessEvent_7
   \   000041   24EF         ADD     A,#-0x11
   \   000043   60CB         JZ      ??SampleApp_ProcessEvent_2
   \   000045   80CF         SJMP    ??SampleApp_ProcessEvent_3
   \                     ??SampleApp_ProcessEvent_7:
   \   000047                ; Setup parameters for call to function SampleApp_HandleKeys
   \   000047   A3           INC     DPTR
   \   000048   A3           INC     DPTR
   \   000049   A3           INC     DPTR
   \   00004A   E0           MOVX    A,@DPTR
   \   00004B   FA           MOV     R2,A
   \   00004C   8E82         MOV     DPL,R6
   \   00004E   8F83         MOV     DPH,R7
   \   000050   A3           INC     DPTR
   \   000051   A3           INC     DPTR
   \   000052   E0           MOVX    A,@DPTR
   \   000053   F9           MOV     R1,A
   \   000054   12....       LCALL   ??SampleApp_HandleKeys?relay
   \   000057   80BD         SJMP    ??SampleApp_ProcessEvent_3
   \                     ??SampleApp_ProcessEvent_5:
   \   000059                ; Setup parameters for call to function SampleApp_SerialCMD
   \   000059   EE           MOV     A,R6
   \   00005A   FA           MOV     R2,A
   \   00005B   EF           MOV     A,R7
   \   00005C   FB           MOV     R3,A
   \   00005D   12....       LCALL   ??SampleApp_SerialCMD?relay
   \   000060   80B4         SJMP    ??SampleApp_ProcessEvent_3
   \                     ??SampleApp_ProcessEvent_6:
   \   000062                ; Setup parameters for call to function SampleApp_MessageMSGCB
   \   000062   EE           MOV     A,R6
   \   000063   FA           MOV     R2,A
   \   000064   EF           MOV     A,R7
   \   000065   FB           MOV     R3,A
   \   000066   12....       LCALL   ??SampleApp_MessageMSGCB?relay
   \   000069   80AB         SJMP    ??SampleApp_ProcessEvent_3
    352              }
    353          
    354              // return unprocessed events
    355              return (events ^ SYS_EVENT_MSG);
   \                     ??SampleApp_ProcessEvent_4:
   \   00006B   AA..         MOV     R2,?V0 + 0
   \   00006D   E5..         MOV     A,?V0 + 1
   \   00006F   6480         XRL     A,#0x80
   \   000071   FB           MOV     R3,A
   \   000072   802C         SJMP    ??SampleApp_ProcessEvent_8
    356            }
    357          
    358            // Send a message out - This event is generated by a timer
    359            //  (setup in SampleApp_Init()).
    360            if ( events & SAMPLEAPP_SEND_PERIODIC_MSG_EVT )
   \                     ??SampleApp_ProcessEvent_0:
   \   000074   EA           MOV     A,R2
   \   000075   A2E0         MOV     C,0xE0 /* A   */.0
   \   000077   5023         JNC     ??SampleApp_ProcessEvent_9
    361            {
    362              // Send the periodic message
    363              SampleApp_SendPeriodicMessage();
   \   000079                ; Setup parameters for call to function SampleApp_SendPeriodicMessage
   \   000079   12....       LCALL   ??SampleApp_SendPeriodicMessage?relay
    364          
    365              // Setup to send message again in normal period (+ a little jitter)
    366              osal_start_timerEx( SampleApp_TaskID, SAMPLEAPP_SEND_PERIODIC_MSG_EVT,
    367                  (SAMPLEAPP_SEND_PERIODIC_MSG_TIMEOUT + (osal_rand() & 0x00FF)) );
   \   00007C                ; Setup parameters for call to function osal_rand
   \   00007C   12....       LCALL   ??osal_rand?relay
   \   00007F                ; Setup parameters for call to function osal_start_timerEx
   \   00007F   EA           MOV     A,R2
   \   000080   2488         ADD     A,#-0x78
   \   000082   FC           MOV     R4,A
   \   000083   E4           CLR     A
   \   000084   3413         ADDC    A,#0x13
   \   000086   FD           MOV     R5,A
   \   000087   7A01         MOV     R2,#0x1
   \   000089   7B00         MOV     R3,#0x0
   \   00008B   90....       MOV     DPTR,#SampleApp_TaskID
   \   00008E   E0           MOVX    A,@DPTR
   \   00008F   F9           MOV     R1,A
   \   000090   12....       LCALL   ??osal_start_timerEx?relay
    368          
    369              // return unprocessed events
    370              return (events ^ SAMPLEAPP_SEND_PERIODIC_MSG_EVT);
   \   000093   E5..         MOV     A,?V0 + 0
   \   000095   6401         XRL     A,#0x1
   \   000097   FA           MOV     R2,A
   \   000098   AB..         MOV     R3,?V0 + 1
   \   00009A   8004         SJMP    ??SampleApp_ProcessEvent_8
    371            }
    372            
    373            if (events & SAMPLEAPP_LIGHT){
    374              //lightRead();
    375              //osal_start_timerEx( SampleApp_TaskID,
    376              //                          SAMPLEAPP_LIGHT,
    377              //                          1000 );
    378            }
    379            
    380            // Discard unknown events
    381            return 0;
   \                     ??SampleApp_ProcessEvent_9:
   \   00009C   7A00         MOV     R2,#0x0
   \   00009E   7B00         MOV     R3,#0x0
   \                     ??SampleApp_ProcessEvent_8:
   \   0000A0   7F04         MOV     R7,#0x4
   \   0000A2   02....       LJMP    ?BANKED_LEAVE_XDATA
    382          }
    383          
    384          
    385          
    386          
    387          /*********************************************************************
    388           * Event Generation Functions
    389           */
    390          /*********************************************************************
    391           * @fn      SampleApp_HandleKeys
    392           *
    393           * @brief   Handles all key events for this device.
    394           *
    395           * @param   shift - true if in shift/alt.
    396           * @param   keys - bit field for key events. Valid entries:
    397           *                 HAL_KEY_SW_2
    398           *                 HAL_KEY_SW_1
    399           *
    400           * @return  none
    401           */

   \                                 In  segment BANKED_CODE, align 1, keep-with-next
    402          void SampleApp_HandleKeys( uint8 shift, uint8 keys )
   \                     SampleApp_HandleKeys:
    403          {
   \   000000   74F7         MOV     A,#-0x9
   \   000002   12....       LCALL   ?BANKED_ENTER_XDATA
   \   000005                ; Saved register size: 9
   \   000005                ; Auto size: 0
   \   000005   EA           MOV     A,R2
    404            (void)shift;  // Intentionally unreferenced parameter
    405            
    406            if ( keys & HAL_KEY_SW_1 )
    407            {
    408              /* This key sends the Flash Command is sent to Group 1.
    409               * This device will not receive the Flash Command from this
    410               * device (even if it belongs to group 1).
    411               */
    412              //SampleApp_SendFlashMessage( SAMPLEAPP_FLASH_DURATION );
    413            }
    414          
    415            if ( keys & HAL_KEY_SW_2 )
    416            {
    417              /* The Flashr Command is sent to Group 1.
    418               * This key toggles this device in and out of group 1.
    419               * If this device doesn't belong to group 1, this application
    420               * will not receive the Flash command sent to group 1.
    421               */
    422              /*
    423              aps_Group_t *grp;
    424              grp = aps_FindGroup( SAMPLEAPP_ENDPOINT, SAMPLEAPP_FLASH_GROUP );
    425              if ( grp )
    426              {
    427                // Remove from the group
    428                aps_RemoveGroup( SAMPLEAPP_ENDPOINT, SAMPLEAPP_FLASH_GROUP );
    429              }
    430              else
    431              {
    432                // Add to the flash group
    433                aps_AddGroup( SAMPLEAPP_ENDPOINT, &SampleApp_Group );
    434              }
    435              */
    436            }
    437            
    438            if ( keys & HAL_KEY_SW_6){
   \   000006   A2E5         MOV     C,0xE0 /* A   */.5
   \   000008   5009         JNC     ??SampleApp_HandleKeys_0
    439              aps_AddGroup( SAMPLEAPP_ENDPOINT, &SampleApp_Group );
   \   00000A                ; Setup parameters for call to function aps_AddGroup
   \   00000A   7A..         MOV     R2,#SampleApp_Group & 0xff
   \   00000C   7B..         MOV     R3,#(SampleApp_Group >> 8) & 0xff
   \   00000E   7914         MOV     R1,#0x14
   \   000010   12....       LCALL   ??aps_AddGroup?relay
    440              
    441            }
    442          }
   \                     ??SampleApp_HandleKeys_0:
   \   000013   7F01         MOV     R7,#0x1
   \   000015   02....       LJMP    ?BANKED_LEAVE_XDATA
    443          
    444          /*********************************************************************
    445           * LOCAL FUNCTIONS
    446           */
    447          
    448          /*********************************************************************
    449           * @fn      SampleApp_MessageMSGCB
    450           *
    451           * @brief   Data message processor callback.  This function processes
    452           *          any incoming data - probably from other devices.  So, based
    453           *          on cluster ID, perform the intended action.
    454           *
    455           * @param   none
    456           *
    457           * @return  none
    458           */

   \                                 In  segment BANKED_CODE, align 1, keep-with-next
    459          void SampleApp_MessageMSGCB( afIncomingMSGPacket_t *pkt )
   \                     SampleApp_MessageMSGCB:
    460          {
   \   000000   74F6         MOV     A,#-0xa
   \   000002   12....       LCALL   ?BANKED_ENTER_XDATA
   \   000005                ; Saved register size: 10
   \   000005                ; Auto size: 0
    461            uint16 flashTime;
    462          
    463            switch ( pkt->clusterId )
   \   000005   8A82         MOV     DPL,R2
   \   000007   8B83         MOV     DPH,R3
   \   000009   A3           INC     DPTR
   \   00000A   A3           INC     DPTR
   \   00000B   A3           INC     DPTR
   \   00000C   A3           INC     DPTR
   \   00000D   E0           MOVX    A,@DPTR
   \   00000E   F5..         MOV     ?V0 + 0,A
   \   000010   A3           INC     DPTR
   \   000011   E0           MOVX    A,@DPTR
   \   000012   F5..         MOV     ?V0 + 1,A
   \   000014   78..         MOV     R0,#?V0 + 0
   \   000016   12....       LCALL   ?US_SWITCH_DENSE
   \                     `?<Jumptable for SampleApp_MessageMSGCB>_0`:
   \   000019   0200         DW        2
   \   00001B   02           DB        2
   \   00001C   ....         DW        ??SampleApp_MessageMSGCB_0
   \   00001E   ....         DW        ??SampleApp_MessageMSGCB_1
   \   000020   ....         DW        ??SampleApp_MessageMSGCB_2
   \   000022   ....         DW        ??SampleApp_MessageMSGCB_2
    464            {
    465              case SAMPLEAPP_PERIODIC_CLUSTERID:
    466                break;
    467          
    468              case SAMPLEAPP_FLASH_CLUSTERID:
    469                flashTime = BUILD_UINT16(pkt->cmd.Data[1], pkt->cmd.Data[2] );
    470                HalLedBlink( HAL_LED_4, 4, 50, (flashTime / 4) );
   \                     ??SampleApp_MessageMSGCB_1:
   \   000024   12....       LCALL   ?Subroutine2 & 0xFFFF
   \                     ??CrossCallReturnLabel_0:
   \   000027   F8           MOV     R0,A
   \   000028   A3           INC     DPTR
   \   000029   E0           MOVX    A,@DPTR
   \   00002A   F9           MOV     R1,A
   \   00002B                ; Setup parameters for call to function HalLedBlink
   \   00002B   8882         MOV     DPL,R0
   \   00002D   8983         MOV     DPH,R1
   \   00002F   A3           INC     DPTR
   \   000030   E0           MOVX    A,@DPTR
   \   000031   FA           MOV     R2,A
   \   000032   8882         MOV     DPL,R0
   \   000034   8983         MOV     DPH,R1
   \   000036   A3           INC     DPTR
   \   000037   A3           INC     DPTR
   \   000038   E0           MOVX    A,@DPTR
   \   000039   F9           MOV     R1,A
   \   00003A   EA           MOV     A,R2
   \   00003B   2400         ADD     A,#0x0
   \   00003D   F5..         MOV     ?V0 + 0,A
   \   00003F   E4           CLR     A
   \   000040   39           ADDC    A,R1
   \   000041   F5..         MOV     ?V0 + 1,A
   \   000043   7402         MOV     A,#0x2
   \   000045   78..         MOV     R0,#?V0 + 0
   \   000047   12....       LCALL   ?US_SHR
   \   00004A   AC..         MOV     R4,?V0 + 0
   \   00004C   AD..         MOV     R5,?V0 + 1
   \   00004E   7B32         MOV     R3,#0x32
   \   000050   7A04         MOV     R2,#0x4
   \   000052   7908         MOV     R1,#0x8
   \   000054   12....       LCALL   ??HalLedBlink?relay
    471                break;
   \   000057   801A         SJMP    ??SampleApp_MessageMSGCB_0
    472              case SAMPLEAPP_STRING_CLUSTERID:
    473                uint8 len = pkt->cmd.DataLength;
                       ^
Warning[Pe1072]: a declaration cannot have a label
    474                HalUARTWrite(0,pkt->cmd.Data,len);
   \                     ??SampleApp_MessageMSGCB_2:
   \   000059                ; Setup parameters for call to function HalUARTWrite
   \   000059   EA           MOV     A,R2
   \   00005A   2420         ADD     A,#0x20
   \   00005C   F582         MOV     DPL,A
   \   00005E   EB           MOV     A,R3
   \   00005F   3400         ADDC    A,#0x0
   \   000061   F583         MOV     DPH,A
   \   000063   E0           MOVX    A,@DPTR
   \   000064   FC           MOV     R4,A
   \   000065   7D00         MOV     R5,#0x0
   \   000067   12....       LCALL   ?Subroutine2 & 0xFFFF
   \                     ??CrossCallReturnLabel_1:
   \   00006A   FA           MOV     R2,A
   \   00006B   A3           INC     DPTR
   \   00006C   E0           MOVX    A,@DPTR
   \   00006D   FB           MOV     R3,A
   \   00006E   7900         MOV     R1,#0x0
   \   000070   12....       LCALL   ??HalUARTWrite?relay
    475                break;
    476              case SAMPLEAPP_COORDINATOR_CLUSTERID:
    477                  uint8 stringlen = pkt->cmd.DataLength;
                         ^
Warning[Pe1072]: a declaration cannot have a label

    switch ( pkt->clusterId )
    ^
"D:\zigbee\cc2530_study\ZStack\Projects\zstack\Samples\SampleAppTest06\Source\SampleAppRouter.c",463  Warning[Pe546]: 
          transfer of control bypasses initialization of:
            variable "len" (declared at line 473 of
                      "D:\zigbee\cc2530_study\ZStack\Projects\zstack\Samples\Sa
                      mpleAppTest06\Source\SampleAppRouter.c")
    478                  HalUARTWrite(0,pkt->cmd.Data,stringlen);
    479                  break;
    480            }
    481          }
   \                     ??SampleApp_MessageMSGCB_0:
   \   000073   02....       LJMP    ??Subroutine6_0 & 0xFFFF

   \                                 In  segment BANKED_CODE, align 1, keep-with-next
   \                     ?Subroutine2:
   \   000000   EA           MOV     A,R2
   \   000001   2422         ADD     A,#0x22
   \   000003   F582         MOV     DPL,A
   \   000005   EB           MOV     A,R3
   \   000006   3400         ADDC    A,#0x0
   \   000008   F583         MOV     DPH,A
   \   00000A   E0           MOVX    A,@DPTR
   \   00000B   22           RET

   \                                 In  segment BANKED_CODE, align 1, keep-with-next
   \                     ??Subroutine6_0:
   \   000000   7F02         MOV     R7,#0x2
   \   000002   02....       LJMP    ?BANKED_LEAVE_XDATA
    482          
    483          /*********************************************************************
    484           * @fn      SampleApp_SendPeriodicMessage
    485           *
    486           * @brief   Send the periodic message.
    487           *
    488           * @param   none
    489           *
    490           * @return  none
    491           */

   \                                 In  segment BANKED_CODE, align 1, keep-with-next
    492          void SampleApp_SendPeriodicMessage( void )
   \                     SampleApp_SendPeriodicMessage:
    493          {
   \   000000   74F6         MOV     A,#-0xa
   \   000002   12....       LCALL   ?BANKED_ENTER_XDATA
   \   000005                ; Saved register size: 10
   \   000005                ; Auto size: 0
    494            if ( AF_DataRequest( &SampleApp_Periodic_DstAddr, &SampleApp_epDesc,
    495                                 SAMPLEAPP_PERIODIC_CLUSTERID,
    496                                 1,
    497                                 (uint8*)&SampleAppPeriodicCounter,
    498                                 &SampleApp_TransID,
    499                                 AF_DISCV_ROUTE,
    500                                 AF_DEFAULT_RADIUS ) == afStatus_SUCCESS )
   \   000005                ; Setup parameters for call to function AF_DataRequest
   \   000005   75..1E       MOV     ?V0 + 0,#0x1e
   \   000008   78..         MOV     R0,#?V0 + 0
   \   00000A   12....       LCALL   ?PUSH_XSTACK_I_ONE
   \   00000D   75....       MOV     ?V0 + 0,#SampleApp_TransID & 0xff
   \   000010   75....       MOV     ?V0 + 1,#(SampleApp_TransID >> 8) & 0xff
   \   000013   78..         MOV     R0,#?V0 + 0
   \   000015   12....       LCALL   ?PUSH_XSTACK_I_TWO
   \   000018   75....       MOV     ?V0 + 0,#SampleAppPeriodicCounter & 0xff
   \   00001B   75....       MOV     ?V0 + 1,#(SampleAppPeriodicCounter >> 8) & 0xff
   \   00001E   78..         MOV     R0,#?V0 + 0
   \   000020   12....       LCALL   ?PUSH_XSTACK_I_TWO
   \   000023   75..01       MOV     ?V0 + 0,#0x1
   \   000026   75..00       MOV     ?V0 + 1,#0x0
   \   000029   78..         MOV     R0,#?V0 + 0
   \   00002B   12....       LCALL   ?PUSH_XSTACK_I_TWO
   \   00002E   78..         MOV     R0,#?V0 + 0
   \   000030   12....       LCALL   ?PUSH_XSTACK_I_TWO
   \   000033   7920         MOV     R1,#0x20
   \   000035   7C..         MOV     R4,#SampleApp_epDesc & 0xff
   \   000037   7D..         MOV     R5,#(SampleApp_epDesc >> 8) & 0xff
   \   000039   7A..         MOV     R2,#SampleApp_Periodic_DstAddr & 0xff
   \   00003B   7B..         MOV     R3,#(SampleApp_Periodic_DstAddr >> 8) & 0xff
   \   00003D   80..         SJMP    ?Subroutine1
    501            {
    502              
    503            }
    504            else
    505            {
    506              // Error occurred in request to send.
    507            }
    508          }

   \                                 In  segment BANKED_CODE, align 1, keep-with-next
   \                     ?Subroutine1:
   \   000000   12....       LCALL   ??AF_DataRequest?relay
   \   000003   7409         MOV     A,#0x9
   \   000005                REQUIRE ??Subroutine5_0
   \   000005                ; // Fall through to label ??Subroutine5_0

   \                                 In  segment BANKED_CODE, align 1, keep-with-next
   \                     ??Subroutine5_0:
   \   000000   12....       LCALL   ?DEALLOC_XSTACK8
   \   000003                REQUIRE ??Subroutine6_0
   \   000003                ; // Fall through to label ??Subroutine6_0
    509          
    510          /*********************************************************************
    511           * @fn      SampleApp_SendFlashMessage
    512           *
    513           * @brief   Send the flash message to group 1.
    514           *
    515           * @param   flashTime - in milliseconds
    516           *
    517           * @return  none
    518           */

   \                                 In  segment BANKED_CODE, align 1, keep-with-next
    519          void SampleApp_SendFlashMessage( uint16 flashTime )
   \                     SampleApp_SendFlashMessage:
    520          {
   \   000000   74F6         MOV     A,#-0xa
   \   000002   12....       LCALL   ?BANKED_ENTER_XDATA
   \   000005                ; Saved register size: 10
   \   000005                ; Auto size: 3
   \   000005   74FD         MOV     A,#-0x3
   \   000007   12....       LCALL   ?ALLOC_XSTACK8
    521            uint8 buffer[3];
    522            buffer[0] = (uint8)(SampleAppFlashCounter++);
   \   00000A   90....       MOV     DPTR,#SampleAppFlashCounter
   \   00000D   E0           MOVX    A,@DPTR
   \   00000E   85..82       MOV     DPL,?XSP + 0
   \   000011   85..83       MOV     DPH,?XSP + 1
   \   000014   F0           MOVX    @DPTR,A
   \   000015   90....       MOV     DPTR,#SampleAppFlashCounter
   \   000018   E0           MOVX    A,@DPTR
   \   000019   04           INC     A
   \   00001A   F0           MOVX    @DPTR,A
    523            buffer[1] = LO_UINT16( flashTime );
   \   00001B   7401         MOV     A,#0x1
   \   00001D   12....       LCALL   ?XSTACK_DISP0_8
   \   000020   EA           MOV     A,R2
   \   000021   F0           MOVX    @DPTR,A
    524            buffer[2] = HI_UINT16( flashTime );
   \   000022   7402         MOV     A,#0x2
   \   000024   12....       LCALL   ?XSTACK_DISP0_8
   \   000027   EB           MOV     A,R3
   \   000028   F0           MOVX    @DPTR,A
    525          
    526            if ( AF_DataRequest( &SampleApp_Flash_DstAddr, &SampleApp_epDesc,
    527                                 SAMPLEAPP_FLASH_CLUSTERID,
    528                                 3,
    529                                 buffer,
    530                                 &SampleApp_TransID,
    531                                 AF_DISCV_ROUTE,
    532                                 AF_DEFAULT_RADIUS ) == afStatus_SUCCESS )
   \   000029                ; Setup parameters for call to function AF_DataRequest
   \   000029   75..1E       MOV     ?V0 + 0,#0x1e
   \   00002C   78..         MOV     R0,#?V0 + 0
   \   00002E   12....       LCALL   ?PUSH_XSTACK_I_ONE
   \   000031   75....       MOV     ?V0 + 0,#SampleApp_TransID & 0xff
   \   000034   75....       MOV     ?V0 + 1,#(SampleApp_TransID >> 8) & 0xff
   \   000037   78..         MOV     R0,#?V0 + 0
   \   000039   12....       LCALL   ?PUSH_XSTACK_I_TWO
   \   00003C   7403         MOV     A,#0x3
   \   00003E   12....       LCALL   ?XSTACK_DISP0_8
   \   000041   8582..       MOV     ?V0 + 0,DPL
   \   000044   8583..       MOV     ?V0 + 1,DPH
   \   000047   78..         MOV     R0,#?V0 + 0
   \   000049   12....       LCALL   ?PUSH_XSTACK_I_TWO
   \   00004C   75..03       MOV     ?V0 + 0,#0x3
   \   00004F   75..00       MOV     ?V0 + 1,#0x0
   \   000052   78..         MOV     R0,#?V0 + 0
   \   000054   12....       LCALL   ?PUSH_XSTACK_I_TWO
   \   000057   75..02       MOV     ?V0 + 0,#0x2
   \   00005A   78..         MOV     R0,#?V0 + 0
   \   00005C   12....       LCALL   ?PUSH_XSTACK_I_TWO
   \   00005F   7920         MOV     R1,#0x20
   \   000061   7C..         MOV     R4,#SampleApp_epDesc & 0xff
   \   000063   7D..         MOV     R5,#(SampleApp_epDesc >> 8) & 0xff
   \   000065   7A..         MOV     R2,#SampleApp_Flash_DstAddr & 0xff
   \   000067   7B..         MOV     R3,#(SampleApp_Flash_DstAddr >> 8) & 0xff
   \   000069   12....       LCALL   ??AF_DataRequest?relay
   \   00006C   7409         MOV     A,#0x9
   \   00006E   12....       LCALL   ?DEALLOC_XSTACK8
    533            {
    534            }
    535            else
    536            {
    537              // Error occurred in request to send.
    538            }
    539          }
   \   000071   7403         MOV     A,#0x3
   \   000073   80..         SJMP    ??Subroutine5_0
    540          
    541          /*********************************************************************
    542          *********************************************************************/

   \                                 In  segment BANKED_CODE, align 1, keep-with-next
    543          void SampleApp_SendStringMessage( uint8* str,uint8 len ){
   \                     SampleApp_SendStringMessage:
   \   000000   74F6         MOV     A,#-0xa
   \   000002   12....       LCALL   ?BANKED_ENTER_XDATA
   \   000005                ; Saved register size: 10
   \   000005                ; Auto size: 0
   \   000005   E9           MOV     A,R1
   \   000006   FE           MOV     R6,A
    544            //uint8 buf[32];
    545            if ( AF_DataRequest( &SampleApp_String_DstAddr, &SampleApp_epDesc,
    546                                 SAMPLEAPP_STRING_CLUSTERID,
    547                                 len,
    548                                 str,
    549                                 &SampleApp_TransID,
    550                                 AF_DISCV_ROUTE,
    551                                 AF_DEFAULT_RADIUS ) == afStatus_SUCCESS )
   \   000007                ; Setup parameters for call to function AF_DataRequest
   \   000007   75..1E       MOV     ?V0 + 0,#0x1e
   \   00000A   78..         MOV     R0,#?V0 + 0
   \   00000C   12....       LCALL   ?PUSH_XSTACK_I_ONE
   \   00000F   75....       MOV     ?V0 + 0,#SampleApp_TransID & 0xff
   \   000012   75....       MOV     ?V0 + 1,#(SampleApp_TransID >> 8) & 0xff
   \   000015   78..         MOV     R0,#?V0 + 0
   \   000017   12....       LCALL   ?PUSH_XSTACK_I_TWO
   \   00001A   8A..         MOV     ?V0 + 0,R2
   \   00001C   8B..         MOV     ?V0 + 1,R3
   \   00001E   78..         MOV     R0,#?V0 + 0
   \   000020   12....       LCALL   ?PUSH_XSTACK_I_TWO
   \   000023   8E..         MOV     ?V0 + 0,R6
   \   000025   75..00       MOV     ?V0 + 1,#0x0
   \   000028   78..         MOV     R0,#?V0 + 0
   \   00002A   12....       LCALL   ?PUSH_XSTACK_I_TWO
   \   00002D   75..03       MOV     ?V0 + 0,#0x3
   \   000030   78..         MOV     R0,#?V0 + 0
   \   000032   12....       LCALL   ?PUSH_XSTACK_I_TWO
   \   000035   7920         MOV     R1,#0x20
   \   000037   7C..         MOV     R4,#SampleApp_epDesc & 0xff
   \   000039   7D..         MOV     R5,#(SampleApp_epDesc >> 8) & 0xff
   \   00003B   7A..         MOV     R2,#SampleApp_String_DstAddr & 0xff
   \   00003D   7B..         MOV     R3,#(SampleApp_String_DstAddr >> 8) & 0xff
   \   00003F   80..         SJMP    ?Subroutine1
    552            {
    553            }
    554            else
    555            {
    556              // Error occurred in request to send.
    557            }
    558          }
    559          

   \                                 In  segment BANKED_CODE, align 1, keep-with-next
    560          void SampleApp_SendStringToCoordinator( uint8* str,uint8 len ){
   \                     SampleApp_SendStringToCoordinator:
   \   000000   74F6         MOV     A,#-0xa
   \   000002   12....       LCALL   ?BANKED_ENTER_XDATA
   \   000005                ; Saved register size: 10
   \   000005                ; Auto size: 0
   \   000005   E9           MOV     A,R1
   \   000006   FE           MOV     R6,A
    561            if ( AF_DataRequest( &SampleAPP_Coordinator_DstAddr, &SampleApp_epDesc,
    562                                 SAMPLEAPP_COORDINATOR_CLUSTERID,
    563                                 len,
    564                                 str,
    565                                 &SampleApp_TransID,
    566                                 AF_DISCV_ROUTE,
    567                                 AF_DEFAULT_RADIUS ) == afStatus_SUCCESS )
   \   000007                ; Setup parameters for call to function AF_DataRequest
   \   000007   75..1E       MOV     ?V0 + 0,#0x1e
   \   00000A   78..         MOV     R0,#?V0 + 0
   \   00000C   12....       LCALL   ?PUSH_XSTACK_I_ONE
   \   00000F   75....       MOV     ?V0 + 0,#SampleApp_TransID & 0xff
   \   000012   75....       MOV     ?V0 + 1,#(SampleApp_TransID >> 8) & 0xff
   \   000015   78..         MOV     R0,#?V0 + 0
   \   000017   12....       LCALL   ?PUSH_XSTACK_I_TWO
   \   00001A   8A..         MOV     ?V0 + 0,R2
   \   00001C   8B..         MOV     ?V0 + 1,R3
   \   00001E   78..         MOV     R0,#?V0 + 0
   \   000020   12....       LCALL   ?PUSH_XSTACK_I_TWO
   \   000023   8E..         MOV     ?V0 + 0,R6
   \   000025   75..00       MOV     ?V0 + 1,#0x0
   \   000028   78..         MOV     R0,#?V0 + 0
   \   00002A   12....       LCALL   ?PUSH_XSTACK_I_TWO
   \   00002D   75..04       MOV     ?V0 + 0,#0x4
   \   000030   78..         MOV     R0,#?V0 + 0
   \   000032   12....       LCALL   ?PUSH_XSTACK_I_TWO
   \   000035   7920         MOV     R1,#0x20
   \   000037   7C..         MOV     R4,#SampleApp_epDesc & 0xff
   \   000039   7D..         MOV     R5,#(SampleApp_epDesc >> 8) & 0xff
   \   00003B   7A..         MOV     R2,#SampleAPP_Coordinator_DstAddr & 0xff
   \   00003D   7B..         MOV     R3,#(SampleAPP_Coordinator_DstAddr >> 8) & 0xff
   \   00003F   12....       LCALL   ??AF_DataRequest?relay
   \   000042   7409         MOV     A,#0x9
   \   000044   12....       LCALL   ?DEALLOC_XSTACK8
   \   000047   E9           MOV     A,R1
   \   000048   600D         JZ      ??SampleApp_SendStringToCoordinator_0
    568            {
    569            }
    570            else
    571            {
    572              HalUARTWrite(0,"sendError\r\n",strlen("sendError\r\n"));
   \   00004A                ; Setup parameters for call to function HalUARTWrite
   \   00004A   7C0B         MOV     R4,#0xb
   \   00004C   7D00         MOV     R5,#0x0
   \   00004E   7A..         MOV     R2,#`?<Constant "sendError\\r\\n">` & 0xff
   \   000050   7B..         MOV     R3,#(`?<Constant "sendError\\r\\n">` >> 8) & 0xff
   \   000052   7900         MOV     R1,#0x0
   \   000054   12....       LCALL   ??HalUARTWrite?relay
    573              // Error occurred in request to send.
    574            }
    575          }
   \                     ??SampleApp_SendStringToCoordinator_0:
   \   000057   02....       LJMP    ??Subroutine6_0 & 0xFFFF

   \                                 In  segment BANK_RELAYS, align 1
   \                     ??SampleApp_Init?relay:
   \   000000   12....       LCALL   ?BDISPATCH
   \   000003   ......       DC24    SampleApp_Init

   \                                 In  segment BANK_RELAYS, align 1
   \                     ??SampleApp_SerialCMD?relay:
   \   000000   12....       LCALL   ?BDISPATCH
   \   000003   ......       DC24    SampleApp_SerialCMD

   \                                 In  segment BANK_RELAYS, align 1
   \                     ??lightRead?relay:
   \   000000   12....       LCALL   ?BDISPATCH
   \   000003   ......       DC24    lightRead

   \                                 In  segment BANK_RELAYS, align 1
   \                     ??SampleApp_ProcessEvent?relay:
   \   000000   12....       LCALL   ?BDISPATCH
   \   000003   ......       DC24    SampleApp_ProcessEvent

   \                                 In  segment BANK_RELAYS, align 1
   \                     ??SampleApp_HandleKeys?relay:
   \   000000   12....       LCALL   ?BDISPATCH
   \   000003   ......       DC24    SampleApp_HandleKeys

   \                                 In  segment BANK_RELAYS, align 1
   \                     ??SampleApp_MessageMSGCB?relay:
   \   000000   12....       LCALL   ?BDISPATCH
   \   000003   ......       DC24    SampleApp_MessageMSGCB

   \                                 In  segment BANK_RELAYS, align 1
   \                     ??SampleApp_SendPeriodicMessage?relay:
   \   000000   12....       LCALL   ?BDISPATCH
   \   000003   ......       DC24    SampleApp_SendPeriodicMessage

   \                                 In  segment BANK_RELAYS, align 1
   \                     ??SampleApp_SendFlashMessage?relay:
   \   000000   12....       LCALL   ?BDISPATCH
   \   000003   ......       DC24    SampleApp_SendFlashMessage

   \                                 In  segment BANK_RELAYS, align 1
   \                     ??SampleApp_SendStringMessage?relay:
   \   000000   12....       LCALL   ?BDISPATCH
   \   000003   ......       DC24    SampleApp_SendStringMessage

   \                                 In  segment BANK_RELAYS, align 1
   \                     ??SampleApp_SendStringToCoordinator?relay:
   \   000000   12....       LCALL   ?BDISPATCH
   \   000003   ......       DC24    SampleApp_SendStringToCoordinator

   \                                 In  segment XDATA_ROM_C, align 1
   \                     `?<Constant "Group 1">`:
   \   000000   47726F75     DB "Group 1"
   \            70203100

   \                                 In  segment XDATA_ROM_C, align 1
   \                     `?<Constant "UART IS OK!\\r\\n">`:
   \   000000   55415254     DB "UART IS OK!\015\012"
   \            20495320
   \            4F4B210D
   \            0A00    

   \                                 In  segment XDATA_ROM_C, align 1
   \                     `?<Constant "sendError\\r\\n">`:
   \   000000   73656E64     DB "sendError\015\012"
   \            4572726F
   \            720D0A00

   Maximum stack usage in bytes:

     Function                       ISTACK PSTACK XSTACK
     --------                       ------ ------ ------
     SampleApp_HandleKeys               0      0     21
       -> aps_AddGroup                  0      0     18
     SampleApp_Init                     0      0     14
       -> afRegister                    0      0     22
       -> RegisterForKeys               0      0     22
       -> osal_memcpy                   0      0     28
       -> RegisterForKeys               0      0     22
       -> MT_UartInit                   0      0     22
       -> MT_UartRegisterTaskID         0      0     22
       -> HalUARTWrite                  0      0     22
       -> HalLedSet                     0      0     22
       -> HalLedSet                     0      0     22
       -> osal_start_timerEx            0      0     22
     SampleApp_MessageMSGCB             0      0     22
       -> HalLedBlink                   0      0     20
       -> HalUARTWrite                  0      0     20
     SampleApp_ProcessEvent             0      0     12
       -> osal_msg_receive              0      0     24
       -> osal_msg_deallocate           0      0     24
       -> osal_msg_receive              0      0     24
       -> SampleApp_HandleKeys          0      0     24
       -> SampleApp_SerialCMD           0      0     24
       -> SampleApp_MessageMSGCB        0      0     24
       -> SampleApp_SendPeriodicMessage
                                        0      0     24
       -> osal_rand                     0      0     24
       -> osal_start_timerEx            0      0     24
     SampleApp_SendFlashMessage         1      0     22
       -> AF_DataRequest                0      0     44
     SampleApp_SendPeriodicMessage      0      0     31
       -> AF_DataRequest                0      0     38
     SampleApp_SendStringMessage        0      0     30
       -> AF_DataRequest                0      0     38
     SampleApp_SendStringToCoordinator
                                        0      0     20
       -> AF_DataRequest                0      0     38
       -> HalUARTWrite                  0      0     20
     SampleApp_SerialCMD                0      0     23
       -> HalUARTWrite                  0      0     22
       -> SampleApp_SendStringMessage
                                        0      0     22
     lightRead                          3      0      1
       -> HalAdcRead                    4      0      2
       -> SampleApp_SendStringToCoordinator
                                        4      0      2


   Segment part sizes:

     Function/Label                            Bytes
     --------------                            -----
     SampleApp_ClusterList                        6
     SampleApp_SimpleDesc                        12
     SampleApp_epDesc                             6
     SampleApp_TaskID                             1
     SampleApp_NwkState                           1
     SampleApp_TransID                            1
     SampleApp_Periodic_DstAddr                  12
     SampleApp_Flash_DstAddr                     12
     SampleApp_String_DstAddr                    12
     SampleAPP_Coordinator_DstAddr               12
     SampleApp_Group                             18
     SampleAppPeriodicCounter                     1
     SampleAppFlashCounter                        1
     SampleApp_Init                             223
     ?Subroutine0                                 5
     ?Subroutine3                                 2
     ??Subroutine4_0                              6
     SampleApp_SerialCMD                         51
     lightRead                                   61
     SampleApp_ProcessEvent                     165
     SampleApp_HandleKeys                        24
     SampleApp_MessageMSGCB                     118
     ?Subroutine2                                12
     ??Subroutine6_0                              5
     SampleApp_SendPeriodicMessage               63
     ?Subroutine1                                 5
     ??Subroutine5_0                              3
     SampleApp_SendFlashMessage                 117
     SampleApp_SendStringMessage                 65
     SampleApp_SendStringToCoordinator
                                                 90
     ??SampleApp_Init?relay                       6
     ??SampleApp_SerialCMD?relay                  6
     ??lightRead?relay                            6
     ??SampleApp_ProcessEvent?relay               6
     ??SampleApp_HandleKeys?relay                 6
     ??SampleApp_MessageMSGCB?relay               6
     ??SampleApp_SendPeriodicMessage?relay        6
     ??SampleApp_SendFlashMessage?relay           6
     ??SampleApp_SendStringMessage?relay          6
     ??SampleApp_SendStringToCoordinator?relay    6
     ?<Constant "Group 1">                        8
     ?<Constant "UART IS OK!\r\n">               14
     ?<Constant "sendError\r\n">                 12

 
 1 015 bytes in segment BANKED_CODE
    60 bytes in segment BANK_RELAYS
    52 bytes in segment XDATA_ROM_C
    77 bytes in segment XDATA_Z
 
 1 075 bytes of CODE  memory
    52 bytes of CONST memory
    77 bytes of XDATA memory

Errors: none
Warnings: 3
