###############################################################################
#                                                                             #
# IAR C/C++ Compiler V8.10.1.10194/W32 for 8051         28/Sep/2018  09:51:31 #
# Copyright 2004-2011 IAR Systems AB.                                         #
#                                                                             #
#    Core               =  plain                                              #
#    Code model         =  banked                                             #
#    Data model         =  large                                              #
#    Calling convention =  xdata reentrant                                    #
#    Constant location  =  data_rom                                           #
#    Dptr setup         =  1,16                                               #
#    Source file        =  D:\zigbee\ZStack-CC2530-2.5.1a\Projects\zstack\Sam #
#                          ples\SampleAppTest02\Source\SampleApp.c            #
#    Command line       =  -f D:\zigbee\ZStack-CC2530-2.5.1a\Projects\zstack\ #
#                          Samples\SampleAppTest02\CC2530DB\..\..\..\Tools\CC #
#                          2530DB\f8wCoord.cfg (-DCPU32MHZ                    #
#                          -DROOT=__near_func -DMAC_CFG_APP_PENDING_QUEUE=TRU #
#                          E -DMAC_CFG_TX_DATA_MAX=5 -DMAC_CFG_TX_MAX=8       #
#                          -DMAC_CFG_RX_MAX=5 -DZDO_COORDINATOR -DRTR_NWK)    #
#                          -f D:\zigbee\ZStack-CC2530-2.5.1a\Projects\zstack\ #
#                          Samples\SampleAppTest02\CC2530DB\..\..\..\Tools\CC #
#                          2530DB\f8wConfig.cfg (-DZIGBEEPRO -DSECURE=0       #
#                          -DZG_SECURE_DYNAMIC=0 -DREFLECTOR                  #
#                          -DDEFAULT_CHANLIST=0x00002000                      #
#                          -DZDAPP_CONFIG_PAN_ID=0xFFFF                       #
#                          -DNWK_START_DELAY=100 -DEXTENDED_JOINING_RANDOM_MA #
#                          SK=0x007F -DBEACON_REQUEST_DELAY=100               #
#                          -DBEACON_REQ_DELAY_MASK=0x00FF                     #
#                          -DLINK_STATUS_JITTER_MASK=0x007F                   #
#                          -DROUTE_EXPIRY_TIME=30 -DAPSC_ACK_WAIT_DURATION_PO #
#                          LLED=3000 -DNWK_INDIRECT_MSG_TIMEOUT=7             #
#                          -DMAX_RREQ_ENTRIES=8 -DAPSC_MAX_FRAME_RETRIES=3    #
#                          -DNWK_MAX_DATA_RETRIES=2                           #
#                          -DMAX_POLL_FAILURE_RETRIES=2 -DMAX_BCAST=9         #
#                          -DAPS_MAX_GROUPS=16 -DMAX_RTG_ENTRIES=40           #
#                          -DNWK_MAX_BINDING_ENTRIES=4                        #
#                          -DMAX_BINDING_CLUSTER_IDS=4 "-DDEFAULT_KEY={0x01,  #
#                          0x03, 0x05, 0x07, 0x09, 0x0B, 0x0D, 0x0F, 0x00,    #
#                          0x02, 0x04, 0x06, 0x08, 0x0A, 0x0C, 0x0D}"         #
#                          -DMAC_MAX_FRAME_SIZE=116                           #
#                          -DZDNWKMGR_MIN_TRANSMISSIONS=20 "-DCONST=const     #
#                          __code" -DGENERIC=__generic                        #
#                          -DRFD_RCVC_ALWAYS_ON=FALSE -DPOLL_RATE=1000        #
#                          -DQUEUED_POLL_RATE=100 -DRESPONSE_POLL_RATE=100)   #
#                          -DREJOIN_POLL_RATE=440 D:\zigbee\ZStack-CC2530-2.5 #
#                          .1a\Projects\zstack\Samples\SampleAppTest02\Source #
#                          \SampleApp.c -D ZTOOL_P1 -D xMT_TASK -D            #
#                          xMT_SYS_FUNC -D xMT_ZDO_FUNC -D                    #
#                          xLCD_SUPPORTED=DEBUG -lC                           #
#                          D:\zigbee\ZStack-CC2530-2.5.1a\Projects\zstack\Sam #
#                          ples\SampleAppTest02\CC2530DB\CoordinatorEB\List\  #
#                          -lA D:\zigbee\ZStack-CC2530-2.5.1a\Projects\zstack #
#                          \Samples\SampleAppTest02\CC2530DB\CoordinatorEB\Li #
#                          st\ --diag_suppress Pe001,Pa010 -o                 #
#                          D:\zigbee\ZStack-CC2530-2.5.1a\Projects\zstack\Sam #
#                          ples\SampleAppTest02\CC2530DB\CoordinatorEB\Obj\   #
#                          -e --no_code_motion --debug --core=plain           #
#                          --dptr=16,1 --data_model=large                     #
#                          --code_model=banked --calling_convention=xdata_ree #
#                          ntrant --place_constants=data_rom                  #
#                          --nr_virtual_regs 16 -I D:\zigbee\ZStack-CC2530-2. #
#                          5.1a\Projects\zstack\Samples\SampleAppTest02\CC253 #
#                          0DB\ -I D:\zigbee\ZStack-CC2530-2.5.1a\Projects\zs #
#                          tack\Samples\SampleAppTest02\CC2530DB\..\Source\   #
#                          -I D:\zigbee\ZStack-CC2530-2.5.1a\Projects\zstack\ #
#                          Samples\SampleAppTest02\CC2530DB\..\..\..\ZMain\TI #
#                          2530DB\ -I D:\zigbee\ZStack-CC2530-2.5.1a\Projects #
#                          \zstack\Samples\SampleAppTest02\CC2530DB\..\..\..\ #
#                          ..\..\Components\hal\include\ -I                   #
#                          D:\zigbee\ZStack-CC2530-2.5.1a\Projects\zstack\Sam #
#                          ples\SampleAppTest02\CC2530DB\..\..\..\..\..\Compo #
#                          nents\hal\target\CC2530EB\ -I                      #
#                          D:\zigbee\ZStack-CC2530-2.5.1a\Projects\zstack\Sam #
#                          ples\SampleAppTest02\CC2530DB\..\..\..\..\..\Compo #
#                          nents\mac\include\ -I D:\zigbee\ZStack-CC2530-2.5. #
#                          1a\Projects\zstack\Samples\SampleAppTest02\CC2530D #
#                          B\..\..\..\..\..\Components\mac\high_level\ -I     #
#                          D:\zigbee\ZStack-CC2530-2.5.1a\Projects\zstack\Sam #
#                          ples\SampleAppTest02\CC2530DB\..\..\..\..\..\Compo #
#                          nents\mac\low_level\srf04\ -I                      #
#                          D:\zigbee\ZStack-CC2530-2.5.1a\Projects\zstack\Sam #
#                          ples\SampleAppTest02\CC2530DB\..\..\..\..\..\Compo #
#                          nents\mac\low_level\srf04\single_chip\ -I          #
#                          D:\zigbee\ZStack-CC2530-2.5.1a\Projects\zstack\Sam #
#                          ples\SampleAppTest02\CC2530DB\..\..\..\..\..\Compo #
#                          nents\mt\ -I D:\zigbee\ZStack-CC2530-2.5.1a\Projec #
#                          ts\zstack\Samples\SampleAppTest02\CC2530DB\..\..\. #
#                          .\..\..\Components\osal\include\ -I                #
#                          D:\zigbee\ZStack-CC2530-2.5.1a\Projects\zstack\Sam #
#                          ples\SampleAppTest02\CC2530DB\..\..\..\..\..\Compo #
#                          nents\services\saddr\ -I                           #
#                          D:\zigbee\ZStack-CC2530-2.5.1a\Projects\zstack\Sam #
#                          ples\SampleAppTest02\CC2530DB\..\..\..\..\..\Compo #
#                          nents\services\sdata\ -I                           #
#                          D:\zigbee\ZStack-CC2530-2.5.1a\Projects\zstack\Sam #
#                          ples\SampleAppTest02\CC2530DB\..\..\..\..\..\Compo #
#                          nents\stack\af\ -I D:\zigbee\ZStack-CC2530-2.5.1a\ #
#                          Projects\zstack\Samples\SampleAppTest02\CC2530DB\. #
#                          .\..\..\..\..\Components\stack\nwk\ -I             #
#                          D:\zigbee\ZStack-CC2530-2.5.1a\Projects\zstack\Sam #
#                          ples\SampleAppTest02\CC2530DB\..\..\..\..\..\Compo #
#                          nents\stack\sapi\ -I D:\zigbee\ZStack-CC2530-2.5.1 #
#                          a\Projects\zstack\Samples\SampleAppTest02\CC2530DB #
#                          \..\..\..\..\..\Components\stack\sec\ -I           #
#                          D:\zigbee\ZStack-CC2530-2.5.1a\Projects\zstack\Sam #
#                          ples\SampleAppTest02\CC2530DB\..\..\..\..\..\Compo #
#                          nents\stack\sys\ -I D:\zigbee\ZStack-CC2530-2.5.1a #
#                          \Projects\zstack\Samples\SampleAppTest02\CC2530DB\ #
#                          ..\..\..\..\..\Components\stack\zdo\ -I            #
#                          D:\zigbee\ZStack-CC2530-2.5.1a\Projects\zstack\Sam #
#                          ples\SampleAppTest02\CC2530DB\..\..\..\..\..\Compo #
#                          nents\zmac\ -I D:\zigbee\ZStack-CC2530-2.5.1a\Proj #
#                          ects\zstack\Samples\SampleAppTest02\CC2530DB\..\.. #
#                          \..\..\..\Components\zmac\f8w\ -Ohz                #
#                          --require_prototypes                               #
#    List file          =  D:\zigbee\ZStack-CC2530-2.5.1a\Projects\zstack\Sam #
#                          ples\SampleAppTest02\CC2530DB\CoordinatorEB\List\S #
#                          ampleApp.lst                                       #
#    Object file        =  D:\zigbee\ZStack-CC2530-2.5.1a\Projects\zstack\Sam #
#                          ples\SampleAppTest02\CC2530DB\CoordinatorEB\Obj\Sa #
#                          mpleApp.r51                                        #
#                                                                             #
#                                                                             #
###############################################################################

D:\zigbee\ZStack-CC2530-2.5.1a\Projects\zstack\Samples\SampleAppTest02\Source\SampleApp.c
      1          /**************************************************************************************************
      2            Filename:       SampleApp.c
      3            Revised:        $Date: 2009-03-18 15:56:27 -0700 (Wed, 18 Mar 2009) $
      4            Revision:       $Revision: 19453 $
      5          
      6            Description:    Sample Application (no Profile).
      7          
      8          
      9            Copyright 2007 Texas Instruments Incorporated. All rights reserved.
     10          
     11            IMPORTANT: Your use of this Software is limited to those specific rights
     12            granted under the terms of a software license agreement between the user
     13            who downloaded the software, his/her employer (which must be your employer)
     14            and Texas Instruments Incorporated (the "License").  You may not use this
     15            Software unless you agree to abide by the terms of the License. The License
     16            limits your use, and you acknowledge, that the Software may not be modified,
     17            copied or distributed unless embedded on a Texas Instruments microcontroller
     18            or used solely and exclusively in conjunction with a Texas Instruments radio
     19            frequency transceiver, which is integrated into your product.  Other than for
     20            the foregoing purpose, you may not use, reproduce, copy, prepare derivative
     21            works of, modify, distribute, perform, display or sell this Software and/or
     22            its documentation for any purpose.
     23          
     24            YOU FURTHER ACKNOWLEDGE AND AGREE THAT THE SOFTWARE AND DOCUMENTATION ARE
     25            PROVIDED “AS IS?WITHOUT WARRANTY OF ANY KIND, EITHER EXPRESS OR IMPLIED,
     26            INCLUDING WITHOUT LIMITATION, ANY WARRANTY OF MERCHANTABILITY, TITLE,
     27            NON-INFRINGEMENT AND FITNESS FOR A PARTICULAR PURPOSE. IN NO EVENT SHALL
     28            TEXAS INSTRUMENTS OR ITS LICENSORS BE LIABLE OR OBLIGATED UNDER CONTRACT,
     29            NEGLIGENCE, STRICT LIABILITY, CONTRIBUTION, BREACH OF WARRANTY, OR OTHER
     30            LEGAL EQUITABLE THEORY ANY DIRECT OR INDIRECT DAMAGES OR EXPENSES
     31            INCLUDING BUT NOT LIMITED TO ANY INCIDENTAL, SPECIAL, INDIRECT, PUNITIVE
     32            OR CONSEQUENTIAL DAMAGES, LOST PROFITS OR LOST DATA, COST OF PROCUREMENT
     33            OF SUBSTITUTE GOODS, TECHNOLOGY, SERVICES, OR ANY CLAIMS BY THIRD PARTIES
     34            (INCLUDING BUT NOT LIMITED TO ANY DEFENSE THEREOF), OR OTHER SIMILAR COSTS.
     35          
     36            Should you have any questions regarding your right to use this Software,
     37            contact Texas Instruments Incorporated at www.TI.com.
     38          **************************************************************************************************/
     39          
     40          /*********************************************************************
     41            This application isn't intended to do anything useful, it is
     42            intended to be a simple example of an application's structure.
     43          
     44            This application sends it's messages either as broadcast or
     45            broadcast filtered group messages.  The other (more normal)
     46            message addressing is unicast.  Most of the other sample
     47            applications are written to support the unicast message model.
     48          
     49            Key control:
     50              SW1:  Sends a flash command to all devices in Group 1.
     51              SW2:  Adds/Removes (toggles) this device in and out
     52                    of Group 1.  This will enable and disable the
     53                    reception of the flash command.
     54          *********************************************************************/
     55          
     56          /*********************************************************************
     57           * INCLUDES
     58           */
     59          #include "OSAL.h"
     60          #include "ZGlobals.h"
     61          #include "AF.h"
     62          #include "aps_groups.h"
     63          #include "ZDApp.h"
     64          
     65          #include "SampleApp.h"
     66          #include "SampleAppHw.h"
     67          
     68          #include "OnBoard.h"
     69          
     70          /* HAL */
     71          #include "hal_lcd.h"
     72          #include "hal_led.h"
     73          #include "hal_key.h"
     74          #include "MT_APP.h"
     75          #include "MT_UART.h"
     76          #include "MT.h"
     77          
     78          #include <string.h>
     79          /*********************************************************************
     80           * MACROS
     81           */
     82          
     83          /*********************************************************************
     84           * CONSTANTS
     85           */
     86          
     87          /*********************************************************************
     88           * TYPEDEFS
     89           */
     90          
     91          /*********************************************************************
     92           * GLOBAL VARIABLES
     93           */
     94          
     95          // This list should be filled with Application specific Cluster IDs.

   \                                 In  segment XDATA_ROM_C, align 1
     96          const cId_t SampleApp_ClusterList[SAMPLEAPP_MAX_CLUSTERS] =
   \                     SampleApp_ClusterList:
   \   000000   0100         DW 1
   \   000002   0200         DW 2
     97          {
     98            SAMPLEAPP_PERIODIC_CLUSTERID,
     99            SAMPLEAPP_FLASH_CLUSTERID
    100          };
    101          

   \                                 In  segment XDATA_ROM_C, align 1
    102          const SimpleDescriptionFormat_t SampleApp_SimpleDesc =
   \                     SampleApp_SimpleDesc:
   \   000000   14           DB 20
   \   000001   080F         DW 3848
   \   000003   0100         DW 1
   \   000005   00           DB 0
   \   000006   02           DB 2
   \   000007   ....         DW SampleApp_ClusterList
   \   000009   02           DB 2
   \   00000A   ....         DW SampleApp_ClusterList
    103          {
    104            SAMPLEAPP_ENDPOINT,              //  int Endpoint;
    105            SAMPLEAPP_PROFID,                //  uint16 AppProfId[2];
    106            SAMPLEAPP_DEVICEID,              //  uint16 AppDeviceId[2];
    107            SAMPLEAPP_DEVICE_VERSION,        //  int   AppDevVer:4;
    108            SAMPLEAPP_FLAGS,                 //  int   AppFlags:4;
    109            SAMPLEAPP_MAX_CLUSTERS,          //  uint8  AppNumInClusters;
    110            (cId_t *)SampleApp_ClusterList,  //  uint8 *pAppInClusterList;
    111            SAMPLEAPP_MAX_CLUSTERS,          //  uint8  AppNumInClusters;
    112            (cId_t *)SampleApp_ClusterList   //  uint8 *pAppInClusterList;
    113          };
    114          
    115          // This is the Endpoint/Interface description.  It is defined here, but
    116          // filled-in in SampleApp_Init().  Another way to go would be to fill
    117          // in the structure here and make it a "const" (in code space).  The
    118          // way it's defined in this sample app it is define in RAM.

   \                                 In  segment XDATA_Z, align 1, keep-with-next
    119          endPointDesc_t SampleApp_epDesc;
   \                     SampleApp_epDesc:
   \   000000                DS 6
   \   000006                REQUIRE __INIT_XDATA_Z
    120          
    121          /*********************************************************************
    122           * EXTERNAL VARIABLES
    123           */
    124          
    125          /*********************************************************************
    126           * EXTERNAL FUNCTIONS
    127           */
    128          
    129          /*********************************************************************
    130           * LOCAL VARIABLES
    131           */

   \                                 In  segment XDATA_Z, align 1, keep-with-next
    132          uint8 SampleApp_TaskID;   // Task ID for internal task/event processing
   \                     SampleApp_TaskID:
   \   000000                DS 1
   \   000001                REQUIRE __INIT_XDATA_Z
    133                                    // This variable will be received when
    134                                    // SampleApp_Init() is called.

   \                                 In  segment XDATA_Z, align 1, keep-with-next
    135          devStates_t SampleApp_NwkState;
   \                     SampleApp_NwkState:
   \   000000                DS 1
   \   000001                REQUIRE __INIT_XDATA_Z
    136          

   \                                 In  segment XDATA_Z, align 1, keep-with-next
    137          uint8 SampleApp_TransID;  // This is the unique message ID (counter)
   \                     SampleApp_TransID:
   \   000000                DS 1
   \   000001                REQUIRE __INIT_XDATA_Z
    138          

   \                                 In  segment XDATA_Z, align 1, keep-with-next
    139          afAddrType_t SampleApp_Periodic_DstAddr;
   \                     SampleApp_Periodic_DstAddr:
   \   000000                DS 12
   \   00000C                REQUIRE __INIT_XDATA_Z

   \                                 In  segment XDATA_Z, align 1, keep-with-next
    140          afAddrType_t SampleApp_Flash_DstAddr;
   \                     SampleApp_Flash_DstAddr:
   \   000000                DS 12
   \   00000C                REQUIRE __INIT_XDATA_Z
    141          

   \                                 In  segment XDATA_Z, align 1, keep-with-next
    142          aps_Group_t SampleApp_Group;
   \                     SampleApp_Group:
   \   000000                DS 18
   \   000012                REQUIRE __INIT_XDATA_Z
    143          

   \                                 In  segment XDATA_Z, align 1, keep-with-next
    144          uint8 SampleAppPeriodicCounter = 0;
   \                     SampleAppPeriodicCounter:
   \   000000                DS 1
   \   000001                REQUIRE __INIT_XDATA_Z

   \                                 In  segment XDATA_Z, align 1, keep-with-next
    145          uint8 SampleAppFlashCounter = 0;
   \                     SampleAppFlashCounter:
   \   000000                DS 1
   \   000001                REQUIRE __INIT_XDATA_Z
    146          
    147          /*********************************************************************
    148           * LOCAL FUNCTIONS
    149           */
    150          void SampleApp_HandleKeys( uint8 shift, uint8 keys );
    151          void SampleApp_MessageMSGCB( afIncomingMSGPacket_t *pckt );
    152          void SampleApp_SendPeriodicMessage( void );
    153          void SampleApp_SendFlashMessage( uint16 flashTime );
    154          
    155          /*********************************************************************
    156           * NETWORK LAYER CALLBACKS
    157           */
    158          
    159          /*********************************************************************
    160           * PUBLIC FUNCTIONS
    161           */
    162          
    163          /*********************************************************************
    164           * @fn      SampleApp_Init
    165           *
    166           * @brief   Initialization function for the Generic App Task.
    167           *          This is called during initialization and should contain
    168           *          any application specific initialization (ie. hardware
    169           *          initialization/setup, table initialization, power up
    170           *          notificaiton ... ).
    171           *
    172           * @param   task_id - the ID assigned by OSAL.  This ID should be
    173           *                    used to send messages and set timers.
    174           *
    175           * @return  none
    176           */

   \                                 In  segment BANKED_CODE, align 1, keep-with-next
    177          void SampleApp_Init( uint8 task_id )
   \                     SampleApp_Init:
    178          {
   \   000000   74F5         MOV     A,#-0xb
   \   000002   12....       LCALL   ?BANKED_ENTER_XDATA
   \   000005                ; Saved register size: 11
   \   000005                ; Auto size: 0
   \   000005   E9           MOV     A,R1
    179            SampleApp_TaskID = task_id;
   \   000006   90....       MOV     DPTR,#SampleApp_TaskID
   \   000009   F0           MOVX    @DPTR,A
    180            SampleApp_NwkState = DEV_INIT;
   \   00000A   90....       MOV     DPTR,#SampleApp_NwkState
   \   00000D   7401         MOV     A,#0x1
   \   00000F   F0           MOVX    @DPTR,A
    181            SampleApp_TransID = 0;
   \   000010   90....       MOV     DPTR,#SampleApp_TransID
   \   000013   E4           CLR     A
   \   000014   F0           MOVX    @DPTR,A
    182          
    183            // Device hardware initialization can be added here or in main() (Zmain.c).
    184            // If the hardware is application specific - add it here.
    185            // If the hardware is other parts of the device add it in main().
    186          
    187           #if defined ( BUILD_ALL_DEVICES )
    188            // The "Demo" target is setup to have BUILD_ALL_DEVICES and HOLD_AUTO_START
    189            // We are looking at a jumper (defined in SampleAppHw.c) to be jumpered
    190            // together - if they are - we will start up a coordinator. Otherwise,
    191            // the device will start as a router.
    192            if ( readCoordinatorJumper() )
    193              zgDeviceLogicalType = ZG_DEVICETYPE_COORDINATOR;
    194            else
    195              zgDeviceLogicalType = ZG_DEVICETYPE_ROUTER;
    196          #endif // BUILD_ALL_DEVICES
    197          
    198          #if defined ( HOLD_AUTO_START )
    199            // HOLD_AUTO_START is a compile option that will surpress ZDApp
    200            //  from starting the device and wait for the application to
    201            //  start the device.
    202            ZDOInitDevice(0);
    203          #endif
    204          
    205            // Setup for the periodic message's destination address
    206            // Broadcast to everyone
    207            SampleApp_Periodic_DstAddr.addrMode = (afAddrMode_t)AddrBroadcast;
   \   000015   90....       MOV     DPTR,#SampleApp_Periodic_DstAddr + 8
   \   000018   740F         MOV     A,#0xf
   \   00001A   F0           MOVX    @DPTR,A
    208            SampleApp_Periodic_DstAddr.endPoint = SAMPLEAPP_ENDPOINT;
   \   00001B   A3           INC     DPTR
   \   00001C   7414         MOV     A,#0x14
   \   00001E   F0           MOVX    @DPTR,A
    209            SampleApp_Periodic_DstAddr.addr.shortAddr = 0xFFFF;
   \   00001F   90....       MOV     DPTR,#SampleApp_Periodic_DstAddr
   \   000022   74FF         MOV     A,#-0x1
   \   000024   F0           MOVX    @DPTR,A
   \   000025   A3           INC     DPTR
   \   000026   F0           MOVX    @DPTR,A
    210          
    211            // Setup for the flash command's destination address - Group 1
    212            SampleApp_Flash_DstAddr.addrMode = (afAddrMode_t)afAddrGroup;
   \   000027   90....       MOV     DPTR,#SampleApp_Flash_DstAddr + 8
   \   00002A   7401         MOV     A,#0x1
   \   00002C   F0           MOVX    @DPTR,A
    213            SampleApp_Flash_DstAddr.endPoint = SAMPLEAPP_ENDPOINT;
   \   00002D   A3           INC     DPTR
   \   00002E   7414         MOV     A,#0x14
   \   000030   F0           MOVX    @DPTR,A
    214            SampleApp_Flash_DstAddr.addr.shortAddr = SAMPLEAPP_FLASH_GROUP;
   \   000031   90....       MOV     DPTR,#SampleApp_Flash_DstAddr
   \   000034   7401         MOV     A,#0x1
   \   000036   F0           MOVX    @DPTR,A
   \   000037   A3           INC     DPTR
   \   000038   E4           CLR     A
   \   000039   F0           MOVX    @DPTR,A
    215          
    216            // Fill out the endpoint description.
    217            SampleApp_epDesc.endPoint = SAMPLEAPP_ENDPOINT;
   \   00003A   90....       MOV     DPTR,#SampleApp_epDesc
   \   00003D   7414         MOV     A,#0x14
   \   00003F   F0           MOVX    @DPTR,A
    218            SampleApp_epDesc.task_id = &SampleApp_TaskID;
   \   000040   A3           INC     DPTR
   \   000041   74..         MOV     A,#SampleApp_TaskID & 0xff
   \   000043   F0           MOVX    @DPTR,A
   \   000044   A3           INC     DPTR
   \   000045   74..         MOV     A,#(SampleApp_TaskID >> 8) & 0xff
   \   000047   F0           MOVX    @DPTR,A
    219            SampleApp_epDesc.simpleDesc
    220                      = (SimpleDescriptionFormat_t *)&SampleApp_SimpleDesc;
   \   000048   A3           INC     DPTR
   \   000049   74..         MOV     A,#SampleApp_SimpleDesc & 0xff
   \   00004B   F0           MOVX    @DPTR,A
   \   00004C   A3           INC     DPTR
   \   00004D   74..         MOV     A,#(SampleApp_SimpleDesc >> 8) & 0xff
   \   00004F   F0           MOVX    @DPTR,A
    221            SampleApp_epDesc.latencyReq = noLatencyReqs;
   \   000050   A3           INC     DPTR
   \   000051   E4           CLR     A
   \   000052   F0           MOVX    @DPTR,A
    222          
    223            // Register the endpoint description with the AF
    224            afRegister( &SampleApp_epDesc );
   \   000053                ; Setup parameters for call to function afRegister
   \   000053   7A..         MOV     R2,#SampleApp_epDesc & 0xff
   \   000055   7B..         MOV     R3,#(SampleApp_epDesc >> 8) & 0xff
   \   000057   12....       LCALL   ??afRegister?relay
    225          
    226            // Register for all key events - This app will handle all key events
    227            RegisterForKeys( SampleApp_TaskID );
   \   00005A                ; Setup parameters for call to function RegisterForKeys
   \   00005A   90....       MOV     DPTR,#SampleApp_TaskID
   \   00005D   E0           MOVX    A,@DPTR
   \   00005E   F9           MOV     R1,A
   \   00005F   12....       LCALL   ??RegisterForKeys?relay
    228          
    229            // By default, all devices start out in Group 1
    230            SampleApp_Group.ID = 0x0001;
   \   000062   90....       MOV     DPTR,#SampleApp_Group
   \   000065   7401         MOV     A,#0x1
   \   000067   F0           MOVX    @DPTR,A
   \   000068   A3           INC     DPTR
   \   000069   E4           CLR     A
   \   00006A   F0           MOVX    @DPTR,A
    231            osal_memcpy( SampleApp_Group.name, "Group 1", 7  );
   \   00006B                ; Setup parameters for call to function osal_memcpy
   \   00006B   75....       MOV     ?V0 + 0,#`?<Constant "Group 1">` & 0xff
   \   00006E   75....       MOV     ?V0 + 1,#(`?<Constant "Group 1">` >> 8) & 0xff
   \   000071   F5..         MOV     ?V0 + 2,A
   \   000073   78..         MOV     R0,#?V0 + 0
   \   000075   12....       LCALL   ?PUSH_XSTACK_I_THREE
   \   000078   7C07         MOV     R4,#0x7
   \   00007A   7D00         MOV     R5,#0x0
   \   00007C   7A..         MOV     R2,#(SampleApp_Group + 2) & 0xff
   \   00007E   7B..         MOV     R3,#((SampleApp_Group + 2) >> 8) & 0xff
   \   000080   12....       LCALL   ??osal_memcpy?relay
   \   000083   7403         MOV     A,#0x3
   \   000085   12....       LCALL   ?DEALLOC_XSTACK8
    232            aps_AddGroup( SAMPLEAPP_ENDPOINT, &SampleApp_Group );
   \   000088                ; Setup parameters for call to function aps_AddGroup
   \   000088   7A..         MOV     R2,#SampleApp_Group & 0xff
   \   00008A   7B..         MOV     R3,#(SampleApp_Group >> 8) & 0xff
   \   00008C   7914         MOV     R1,#0x14
   \   00008E   12....       LCALL   ??aps_AddGroup?relay
    233          
    234          #if defined ( LCD_SUPPORTED )
    235            HalLcdWriteString( "SampleApp", HAL_LCD_LINE_1 );
    236          #endif
    237            
    238            RegisterForKeys( SampleApp_TaskID );
   \   000091                ; Setup parameters for call to function RegisterForKeys
   \   000091   90....       MOV     DPTR,#SampleApp_TaskID
   \   000094   E0           MOVX    A,@DPTR
   \   000095   F9           MOV     R1,A
   \   000096   12....       LCALL   ??RegisterForKeys?relay
    239            MT_UartInit();
   \   000099                ; Setup parameters for call to function MT_UartInit
   \   000099   12....       LCALL   ??MT_UartInit?relay
    240            MT_UartRegisterTaskID( SampleApp_TaskID );
   \   00009C                ; Setup parameters for call to function MT_UartRegisterTaskID
   \   00009C   90....       MOV     DPTR,#SampleApp_TaskID
   \   00009F   E0           MOVX    A,@DPTR
   \   0000A0   F9           MOV     R1,A
   \   0000A1   12....       LCALL   ??MT_UartRegisterTaskID?relay
    241          }
   \   0000A4   7F03         MOV     R7,#0x3
   \   0000A6   02....       LJMP    ?BANKED_LEAVE_XDATA
    242          
    243          /*********************************************************************
    244           * @fn      SampleApp_ProcessEvent
    245           *
    246           * @brief   Generic Application Task event processor.  This function
    247           *          is called to process all events for the task.  Events
    248           *          include timers, messages and any other user defined events.
    249           *
    250           * @param   task_id  - The OSAL assigned task ID.
    251           * @param   events - events to process.  This is a bit map and can
    252           *                   contain more than one event.
    253           *
    254           * @return  none
    255           */

   \                                 In  segment BANKED_CODE, align 1, keep-with-next
    256          uint16 SampleApp_ProcessEvent( uint8 task_id, uint16 events )
   \                     SampleApp_ProcessEvent:
    257          {
   \   000000   74F4         MOV     A,#-0xc
   \   000002   12....       LCALL   ?BANKED_ENTER_XDATA
   \   000005                ; Saved register size: 12
   \   000005                ; Auto size: 0
   \   000005   EA           MOV     A,R2
   \   000006   FE           MOV     R6,A
   \   000007   EB           MOV     A,R3
   \   000008   FF           MOV     R7,A
    258            afIncomingMSGPacket_t *MSGpkt;
    259            (void)task_id;  // Intentionally unreferenced parameter
    260          
    261            if ( events & SYS_EVENT_MSG )
   \   000009   5480         ANL     A,#0x80
   \   00000B   6076         JZ      ??SampleApp_ProcessEvent_0
    262            {
    263              MSGpkt = (afIncomingMSGPacket_t *)osal_msg_receive( SampleApp_TaskID );
   \   00000D                ; Setup parameters for call to function osal_msg_receive
   \   00000D   8028         SJMP    ??SampleApp_ProcessEvent_1
    264              while ( MSGpkt )
    265              {
    266                switch ( MSGpkt->hdr.event )
    267                {
    268                  // Received when a key is pressed
    269                  case KEY_CHANGE:
    270                    SampleApp_HandleKeys( ((keyChange_t *)MSGpkt)->state, ((keyChange_t *)MSGpkt)->keys );
    271                    
    272                    break;
    273          
    274                  // Received when a messages is received (OTA) for this endpoint
    275                  case AF_INCOMING_MSG_CMD:
    276                    SampleApp_MessageMSGCB( MSGpkt );
    277                    break;
    278          
    279                  // Received whenever the device changes state in the network
    280                  case ZDO_STATE_CHANGE:
    281                    SampleApp_NwkState = (devStates_t)(MSGpkt->hdr.status);
   \                     ??SampleApp_ProcessEvent_2:
   \   00000F   A3           INC     DPTR
   \   000010   E0           MOVX    A,@DPTR
   \   000011   90....       MOV     DPTR,#SampleApp_NwkState
   \   000014   F0           MOVX    @DPTR,A
    282                    if ( (SampleApp_NwkState == DEV_ZB_COORD)
    283                        || (SampleApp_NwkState == DEV_ROUTER)
    284                        || (SampleApp_NwkState == DEV_END_DEVICE) )
   \   000015   6409         XRL     A,#0x9
   \   000017   600A         JZ      ??SampleApp_ProcessEvent_3
   \   000019   E0           MOVX    A,@DPTR
   \   00001A   6407         XRL     A,#0x7
   \   00001C   6005         JZ      ??SampleApp_ProcessEvent_3
   \   00001E   E0           MOVX    A,@DPTR
   \   00001F   6406         XRL     A,#0x6
   \   000021   700D         JNZ     ??SampleApp_ProcessEvent_4
    285                    {
    286                      HalLedBlink (HAL_LED_1, 3, 50, 1000); 
   \                     ??SampleApp_ProcessEvent_3:
   \   000023                ; Setup parameters for call to function HalLedBlink
   \   000023   7CE8         MOV     R4,#-0x18
   \   000025   7D03         MOV     R5,#0x3
   \   000027   7B32         MOV     R3,#0x32
   \   000029   7A03         MOV     R2,#0x3
   \   00002B   7901         MOV     R1,#0x1
   \   00002D   12....       LCALL   ??HalLedBlink?relay
    287                      // Start sending the periodic message in a regular interval.
    288                      //osal_start_timerEx( SampleApp_TaskID,
    289                      //                  SAMPLEAPP_SEND_PERIODIC_MSG_EVT,
    290                      //                  SAMPLEAPP_SEND_PERIODIC_MSG_TIMEOUT );
    291                    }
    292                    else
    293                    {
    294                      // Device is no longer in the network
    295                    }
    296                    break;
    297          
    298                  default:
    299                    break;
    300                }
    301          
    302                // Release the memory
    303                osal_msg_deallocate( (uint8 *)MSGpkt );
   \                     ??SampleApp_ProcessEvent_4:
   \   000030                ; Setup parameters for call to function osal_msg_deallocate
   \   000030   AA..         MOV     R2,?V0 + 0
   \   000032   AB..         MOV     R3,?V0 + 1
   \   000034   12....       LCALL   ??osal_msg_deallocate?relay
    304          
    305                // Next - if one is available
    306                MSGpkt = (afIncomingMSGPacket_t *)osal_msg_receive( SampleApp_TaskID );
   \   000037                ; Setup parameters for call to function osal_msg_receive
   \                     ??SampleApp_ProcessEvent_1:
   \   000037   90....       MOV     DPTR,#SampleApp_TaskID
   \   00003A   E0           MOVX    A,@DPTR
   \   00003B   F9           MOV     R1,A
   \   00003C   12....       LCALL   ??osal_msg_receive?relay
   \   00003F   8A..         MOV     ?V0 + 0,R2
   \   000041   8B..         MOV     ?V0 + 1,R3
   \   000043   E5..         MOV     A,?V0 + 0
   \   000045   45..         ORL     A,?V0 + 1
   \   000047   6032         JZ      ??SampleApp_ProcessEvent_5
   \   000049   85..82       MOV     DPL,?V0 + 0
   \   00004C   85..83       MOV     DPH,?V0 + 1
   \   00004F   E0           MOVX    A,@DPTR
   \   000050   24E6         ADD     A,#-0x1a
   \   000052   601E         JZ      ??SampleApp_ProcessEvent_6
   \   000054   245A         ADD     A,#0x5a
   \   000056   6006         JZ      ??SampleApp_ProcessEvent_7
   \   000058   24EF         ADD     A,#-0x11
   \   00005A   60B3         JZ      ??SampleApp_ProcessEvent_2
   \   00005C   80D2         SJMP    ??SampleApp_ProcessEvent_4
   \                     ??SampleApp_ProcessEvent_7:
   \   00005E                ; Setup parameters for call to function SampleApp_HandleKeys
   \   00005E   A3           INC     DPTR
   \   00005F   A3           INC     DPTR
   \   000060   A3           INC     DPTR
   \   000061   E0           MOVX    A,@DPTR
   \   000062   FA           MOV     R2,A
   \   000063   85..82       MOV     DPL,?V0 + 0
   \   000066   85..83       MOV     DPH,?V0 + 1
   \   000069   A3           INC     DPTR
   \   00006A   A3           INC     DPTR
   \   00006B   E0           MOVX    A,@DPTR
   \   00006C   F9           MOV     R1,A
   \   00006D   12....       LCALL   ??SampleApp_HandleKeys?relay
   \   000070   80BE         SJMP    ??SampleApp_ProcessEvent_4
   \                     ??SampleApp_ProcessEvent_6:
   \   000072                ; Setup parameters for call to function SampleApp_MessageMSGCB
   \   000072   AA..         MOV     R2,?V0 + 0
   \   000074   AB..         MOV     R3,?V0 + 1
   \   000076   12....       LCALL   ??SampleApp_MessageMSGCB?relay
   \   000079   80B5         SJMP    ??SampleApp_ProcessEvent_4
    307              }
    308          
    309              // return unprocessed events
    310              return (events ^ SYS_EVENT_MSG);
   \                     ??SampleApp_ProcessEvent_5:
   \   00007B   EE           MOV     A,R6
   \   00007C   FA           MOV     R2,A
   \   00007D   EF           MOV     A,R7
   \   00007E   6480         XRL     A,#0x80
   \                     ??SampleApp_ProcessEvent_8:
   \   000080   FB           MOV     R3,A
   \   000081   8040         SJMP    ??SampleApp_ProcessEvent_9
    311            }
    312          
    313            // Send a message out - This event is generated by a timer
    314            //  (setup in SampleApp_Init()).
    315            if ( events & SAMPLEAPP_SEND_PERIODIC_MSG_EVT )
   \                     ??SampleApp_ProcessEvent_0:
   \   000083   EE           MOV     A,R6
   \   000084   A2E0         MOV     C,0xE0 /* A   */.0
   \   000086   5021         JNC     ??SampleApp_ProcessEvent_10
    316            {
    317              // Send the periodic message
    318              SampleApp_SendPeriodicMessage();
   \   000088                ; Setup parameters for call to function SampleApp_SendPeriodicMessage
   \   000088   12....       LCALL   ??SampleApp_SendPeriodicMessage?relay
    319          
    320              // Setup to send message again in normal period (+ a little jitter)
    321              osal_start_timerEx( SampleApp_TaskID, SAMPLEAPP_SEND_PERIODIC_MSG_EVT,
    322                  (SAMPLEAPP_SEND_PERIODIC_MSG_TIMEOUT + (osal_rand() & 0x00FF)) );
   \   00008B                ; Setup parameters for call to function osal_rand
   \   00008B   12....       LCALL   ??osal_rand?relay
   \   00008E                ; Setup parameters for call to function osal_start_timerEx
   \   00008E   EA           MOV     A,R2
   \   00008F   2488         ADD     A,#-0x78
   \   000091   FC           MOV     R4,A
   \   000092   E4           CLR     A
   \   000093   3413         ADDC    A,#0x13
   \   000095   FD           MOV     R5,A
   \   000096   7A01         MOV     R2,#0x1
   \   000098   7B00         MOV     R3,#0x0
   \   00009A   90....       MOV     DPTR,#SampleApp_TaskID
   \   00009D   E0           MOVX    A,@DPTR
   \   00009E   F9           MOV     R1,A
   \   00009F   12....       LCALL   ??osal_start_timerEx?relay
    323          
    324              // return unprocessed events
    325              return (events ^ SAMPLEAPP_SEND_PERIODIC_MSG_EVT);
   \   0000A2   EE           MOV     A,R6
   \   0000A3   6401         XRL     A,#0x1
   \                     ??SampleApp_ProcessEvent_11:
   \   0000A5   FA           MOV     R2,A
   \   0000A6   EF           MOV     A,R7
   \   0000A7   80D7         SJMP    ??SampleApp_ProcessEvent_8
    326            }
    327            
    328            if (events & SAMPLEAPP_LOVE_LED_0){
   \                     ??SampleApp_ProcessEvent_10:
   \   0000A9   5402         ANL     A,#0x2
   \   0000AB   6012         JZ      ??SampleApp_ProcessEvent_12
    329              HalLedBlink (HAL_LED_2, 3, 50, 1000);  
   \   0000AD                ; Setup parameters for call to function HalLedBlink
   \   0000AD   7CE8         MOV     R4,#-0x18
   \   0000AF   7D03         MOV     R5,#0x3
   \   0000B1   7B32         MOV     R3,#0x32
   \   0000B3   7A03         MOV     R2,#0x3
   \   0000B5   7902         MOV     R1,#0x2
   \   0000B7   12....       LCALL   ??HalLedBlink?relay
    330              return (events ^ SAMPLEAPP_LOVE_LED_0);
   \   0000BA   EE           MOV     A,R6
   \   0000BB   6402         XRL     A,#0x2
   \   0000BD   80E6         SJMP    ??SampleApp_ProcessEvent_11
    331            }
    332            
    333            // Discard unknown events
    334            return 0;
   \                     ??SampleApp_ProcessEvent_12:
   \   0000BF   7A00         MOV     R2,#0x0
   \   0000C1   7B00         MOV     R3,#0x0
   \                     ??SampleApp_ProcessEvent_9:
   \   0000C3   7F04         MOV     R7,#0x4
   \   0000C5   02....       LJMP    ?BANKED_LEAVE_XDATA
    335          }
    336          
    337          /*********************************************************************
    338           * Event Generation Functions
    339           */
    340          /*********************************************************************
    341           * @fn      SampleApp_HandleKeys
    342           *
    343           * @brief   Handles all key events for this device.
    344           *
    345           * @param   shift - true if in shift/alt.
    346           * @param   keys - bit field for key events. Valid entries:
    347           *                 HAL_KEY_SW_2
    348           *                 HAL_KEY_SW_1
    349           *
    350           * @return  none
    351           */

   \                                 In  segment BANKED_CODE, align 1, keep-with-next
    352          void SampleApp_HandleKeys( uint8 shift, uint8 keys )
   \                     SampleApp_HandleKeys:
    353          {
   \   000000   74F7         MOV     A,#-0x9
   \   000002   12....       LCALL   ?BANKED_ENTER_XDATA
   \   000005                ; Saved register size: 9
   \   000005                ; Auto size: 0
   \   000005   EA           MOV     A,R2
    354            (void)shift;  // Intentionally unreferenced parameter
    355            
    356            if ( keys & HAL_KEY_SW_1 )
    357            {
    358              /* This key sends the Flash Command is sent to Group 1.
    359               * This device will not receive the Flash Command from this
    360               * device (even if it belongs to group 1).
    361               */
    362              //SampleApp_SendFlashMessage( SAMPLEAPP_FLASH_DURATION );
    363            }
    364          
    365            if ( keys & HAL_KEY_SW_2 )
    366            {
    367              /* The Flashr Command is sent to Group 1.
    368               * This key toggles this device in and out of group 1.
    369               * If this device doesn't belong to group 1, this application
    370               * will not receive the Flash command sent to group 1.
    371               */
    372              /*
    373              aps_Group_t *grp;
    374              grp = aps_FindGroup( SAMPLEAPP_ENDPOINT, SAMPLEAPP_FLASH_GROUP );
    375              if ( grp )
    376              {
    377                // Remove from the group
    378                aps_RemoveGroup( SAMPLEAPP_ENDPOINT, SAMPLEAPP_FLASH_GROUP );
    379              }
    380              else
    381              {
    382                // Add to the flash group
    383                aps_AddGroup( SAMPLEAPP_ENDPOINT, &SampleApp_Group );
    384              }
    385              */
    386            }
    387            
    388            if ( keys & HAL_KEY_SW_6){
   \   000006   A2E5         MOV     C,0xE0 /* A   */.5
   \   000008   501A         JNC     ??SampleApp_HandleKeys_0
    389              HalLedBlink (HAL_LED_2, 3, 50, 1000); 
   \   00000A                ; Setup parameters for call to function HalLedBlink
   \   00000A   7CE8         MOV     R4,#-0x18
   \   00000C   7D03         MOV     R5,#0x3
   \   00000E   7B32         MOV     R3,#0x32
   \   000010   7A03         MOV     R2,#0x3
   \   000012   7902         MOV     R1,#0x2
   \   000014   12....       LCALL   ??HalLedBlink?relay
    390              HalUARTWrite(0,"helloWorld\r\n",strlen("helloWorld\r\n"));
   \   000017                ; Setup parameters for call to function HalUARTWrite
   \   000017   7C0C         MOV     R4,#0xc
   \   000019   7D00         MOV     R5,#0x0
   \   00001B   7A..         MOV     R2,#`?<Constant "helloWorld\\r\\n">` & 0xff
   \   00001D   7B..         MOV     R3,#(`?<Constant "helloWorld\\r\\n">` >> 8) & 0xff
   \   00001F   7900         MOV     R1,#0x0
   \   000021   12....       LCALL   ??HalUARTWrite?relay
    391            }
    392          }
   \                     ??SampleApp_HandleKeys_0:
   \   000024   7F01         MOV     R7,#0x1
   \   000026   02....       LJMP    ?BANKED_LEAVE_XDATA
    393          
    394          /*********************************************************************
    395           * LOCAL FUNCTIONS
    396           */
    397          
    398          /*********************************************************************
    399           * @fn      SampleApp_MessageMSGCB
    400           *
    401           * @brief   Data message processor callback.  This function processes
    402           *          any incoming data - probably from other devices.  So, based
    403           *          on cluster ID, perform the intended action.
    404           *
    405           * @param   none
    406           *
    407           * @return  none
    408           */

   \                                 In  segment BANKED_CODE, align 1, keep-with-next
    409          void SampleApp_MessageMSGCB( afIncomingMSGPacket_t *pkt )
   \                     SampleApp_MessageMSGCB:
    410          {
   \   000000   74F6         MOV     A,#-0xa
   \   000002   12....       LCALL   ?BANKED_ENTER_XDATA
   \   000005                ; Saved register size: 10
   \   000005                ; Auto size: 0
    411            uint16 flashTime;
    412          
    413            switch ( pkt->clusterId )
   \   000005   8A82         MOV     DPL,R2
   \   000007   8B83         MOV     DPH,R3
   \   000009   A3           INC     DPTR
   \   00000A   A3           INC     DPTR
   \   00000B   A3           INC     DPTR
   \   00000C   A3           INC     DPTR
   \   00000D   E0           MOVX    A,@DPTR
   \   00000E   6402         XRL     A,#0x2
   \   000010   7002         JNZ     ??SampleApp_MessageMSGCB_0
   \   000012   A3           INC     DPTR
   \   000013   E0           MOVX    A,@DPTR
   \                     ??SampleApp_MessageMSGCB_0:
   \   000014   703B         JNZ     ??SampleApp_MessageMSGCB_1
    414            {
    415              case SAMPLEAPP_PERIODIC_CLUSTERID:
    416                break;
    417          
    418              case SAMPLEAPP_FLASH_CLUSTERID:
    419                flashTime = BUILD_UINT16(pkt->cmd.Data[1], pkt->cmd.Data[2] );
    420                HalLedBlink( HAL_LED_4, 4, 50, (flashTime / 4) );
   \   000016   EA           MOV     A,R2
   \   000017   2422         ADD     A,#0x22
   \   000019   F582         MOV     DPL,A
   \   00001B   EB           MOV     A,R3
   \   00001C   3400         ADDC    A,#0x0
   \   00001E   F583         MOV     DPH,A
   \   000020   E0           MOVX    A,@DPTR
   \   000021   F8           MOV     R0,A
   \   000022   A3           INC     DPTR
   \   000023   E0           MOVX    A,@DPTR
   \   000024   F9           MOV     R1,A
   \   000025                ; Setup parameters for call to function HalLedBlink
   \   000025   8882         MOV     DPL,R0
   \   000027   8983         MOV     DPH,R1
   \   000029   A3           INC     DPTR
   \   00002A   E0           MOVX    A,@DPTR
   \   00002B   FA           MOV     R2,A
   \   00002C   8882         MOV     DPL,R0
   \   00002E   8983         MOV     DPH,R1
   \   000030   A3           INC     DPTR
   \   000031   A3           INC     DPTR
   \   000032   E0           MOVX    A,@DPTR
   \   000033   F9           MOV     R1,A
   \   000034   EA           MOV     A,R2
   \   000035   2400         ADD     A,#0x0
   \   000037   F5..         MOV     ?V0 + 0,A
   \   000039   E4           CLR     A
   \   00003A   39           ADDC    A,R1
   \   00003B   F5..         MOV     ?V0 + 1,A
   \   00003D   7402         MOV     A,#0x2
   \   00003F   78..         MOV     R0,#?V0 + 0
   \   000041   12....       LCALL   ?US_SHR
   \   000044   AC..         MOV     R4,?V0 + 0
   \   000046   AD..         MOV     R5,?V0 + 1
   \   000048   7B32         MOV     R3,#0x32
   \   00004A   7A04         MOV     R2,#0x4
   \   00004C   7908         MOV     R1,#0x8
   \   00004E   12....       LCALL   ??HalLedBlink?relay
    421                break;
    422            }
    423          }
   \                     ??SampleApp_MessageMSGCB_1:
   \   000051   80..         SJMP    ??Subroutine1_0

   \                                 In  segment BANKED_CODE, align 1, keep-with-next
   \                     ??Subroutine1_0:
   \   000000   7F02         MOV     R7,#0x2
   \   000002   02....       LJMP    ?BANKED_LEAVE_XDATA
    424          
    425          /*********************************************************************
    426           * @fn      SampleApp_SendPeriodicMessage
    427           *
    428           * @brief   Send the periodic message.
    429           *
    430           * @param   none
    431           *
    432           * @return  none
    433           */

   \                                 In  segment BANKED_CODE, align 1, keep-with-next
    434          void SampleApp_SendPeriodicMessage( void )
   \                     SampleApp_SendPeriodicMessage:
    435          {
   \   000000   74F6         MOV     A,#-0xa
   \   000002   12....       LCALL   ?BANKED_ENTER_XDATA
   \   000005                ; Saved register size: 10
   \   000005                ; Auto size: 0
    436            if ( AF_DataRequest( &SampleApp_Periodic_DstAddr, &SampleApp_epDesc,
    437                                 SAMPLEAPP_PERIODIC_CLUSTERID,
    438                                 1,
    439                                 (uint8*)&SampleAppPeriodicCounter,
    440                                 &SampleApp_TransID,
    441                                 AF_DISCV_ROUTE,
    442                                 AF_DEFAULT_RADIUS ) == afStatus_SUCCESS )
   \   000005                ; Setup parameters for call to function AF_DataRequest
   \   000005   75..1E       MOV     ?V0 + 0,#0x1e
   \   000008   78..         MOV     R0,#?V0 + 0
   \   00000A   12....       LCALL   ?PUSH_XSTACK_I_ONE
   \   00000D   75....       MOV     ?V0 + 0,#SampleApp_TransID & 0xff
   \   000010   75....       MOV     ?V0 + 1,#(SampleApp_TransID >> 8) & 0xff
   \   000013   78..         MOV     R0,#?V0 + 0
   \   000015   12....       LCALL   ?PUSH_XSTACK_I_TWO
   \   000018   75....       MOV     ?V0 + 0,#SampleAppPeriodicCounter & 0xff
   \   00001B   75....       MOV     ?V0 + 1,#(SampleAppPeriodicCounter >> 8) & 0xff
   \   00001E   78..         MOV     R0,#?V0 + 0
   \   000020   12....       LCALL   ?PUSH_XSTACK_I_TWO
   \   000023   75..01       MOV     ?V0 + 0,#0x1
   \   000026   75..00       MOV     ?V0 + 1,#0x0
   \   000029   78..         MOV     R0,#?V0 + 0
   \   00002B   12....       LCALL   ?PUSH_XSTACK_I_TWO
   \   00002E   78..         MOV     R0,#?V0 + 0
   \   000030   12....       LCALL   ?PUSH_XSTACK_I_TWO
   \   000033   7920         MOV     R1,#0x20
   \   000035   7C..         MOV     R4,#SampleApp_epDesc & 0xff
   \   000037   7D..         MOV     R5,#(SampleApp_epDesc >> 8) & 0xff
   \   000039   7A..         MOV     R2,#SampleApp_Periodic_DstAddr & 0xff
   \   00003B   7B..         MOV     R3,#(SampleApp_Periodic_DstAddr >> 8) & 0xff
   \   00003D   12....       LCALL   ??AF_DataRequest?relay
   \   000040   7409         MOV     A,#0x9
   \   000042                REQUIRE ?Subroutine0
   \   000042                ; // Fall through to label ?Subroutine0
    443            {
    444            }
    445            else
    446            {
    447              // Error occurred in request to send.
    448            }
    449          }

   \                                 In  segment BANKED_CODE, align 1, keep-with-next
   \                     ?Subroutine0:
   \   000000   12....       LCALL   ?DEALLOC_XSTACK8
   \   000003                REQUIRE ??Subroutine1_0
   \   000003                ; // Fall through to label ??Subroutine1_0
    450          
    451          /*********************************************************************
    452           * @fn      SampleApp_SendFlashMessage
    453           *
    454           * @brief   Send the flash message to group 1.
    455           *
    456           * @param   flashTime - in milliseconds
    457           *
    458           * @return  none
    459           */

   \                                 In  segment BANKED_CODE, align 1, keep-with-next
    460          void SampleApp_SendFlashMessage( uint16 flashTime )
   \                     SampleApp_SendFlashMessage:
    461          {
   \   000000   74F6         MOV     A,#-0xa
   \   000002   12....       LCALL   ?BANKED_ENTER_XDATA
   \   000005                ; Saved register size: 10
   \   000005                ; Auto size: 3
   \   000005   74FD         MOV     A,#-0x3
   \   000007   12....       LCALL   ?ALLOC_XSTACK8
    462            uint8 buffer[3];
    463            buffer[0] = (uint8)(SampleAppFlashCounter++);
   \   00000A   90....       MOV     DPTR,#SampleAppFlashCounter
   \   00000D   E0           MOVX    A,@DPTR
   \   00000E   85..82       MOV     DPL,?XSP + 0
   \   000011   85..83       MOV     DPH,?XSP + 1
   \   000014   F0           MOVX    @DPTR,A
   \   000015   90....       MOV     DPTR,#SampleAppFlashCounter
   \   000018   E0           MOVX    A,@DPTR
   \   000019   04           INC     A
   \   00001A   F0           MOVX    @DPTR,A
    464            buffer[1] = LO_UINT16( flashTime );
   \   00001B   7401         MOV     A,#0x1
   \   00001D   12....       LCALL   ?XSTACK_DISP0_8
   \   000020   EA           MOV     A,R2
   \   000021   F0           MOVX    @DPTR,A
    465            buffer[2] = HI_UINT16( flashTime );
   \   000022   7402         MOV     A,#0x2
   \   000024   12....       LCALL   ?XSTACK_DISP0_8
   \   000027   EB           MOV     A,R3
   \   000028   F0           MOVX    @DPTR,A
    466          
    467            if ( AF_DataRequest( &SampleApp_Flash_DstAddr, &SampleApp_epDesc,
    468                                 SAMPLEAPP_FLASH_CLUSTERID,
    469                                 3,
    470                                 buffer,
    471                                 &SampleApp_TransID,
    472                                 AF_DISCV_ROUTE,
    473                                 AF_DEFAULT_RADIUS ) == afStatus_SUCCESS )
   \   000029                ; Setup parameters for call to function AF_DataRequest
   \   000029   75..1E       MOV     ?V0 + 0,#0x1e
   \   00002C   78..         MOV     R0,#?V0 + 0
   \   00002E   12....       LCALL   ?PUSH_XSTACK_I_ONE
   \   000031   75....       MOV     ?V0 + 0,#SampleApp_TransID & 0xff
   \   000034   75....       MOV     ?V0 + 1,#(SampleApp_TransID >> 8) & 0xff
   \   000037   78..         MOV     R0,#?V0 + 0
   \   000039   12....       LCALL   ?PUSH_XSTACK_I_TWO
   \   00003C   7403         MOV     A,#0x3
   \   00003E   12....       LCALL   ?XSTACK_DISP0_8
   \   000041   8582..       MOV     ?V0 + 0,DPL
   \   000044   8583..       MOV     ?V0 + 1,DPH
   \   000047   78..         MOV     R0,#?V0 + 0
   \   000049   12....       LCALL   ?PUSH_XSTACK_I_TWO
   \   00004C   75..03       MOV     ?V0 + 0,#0x3
   \   00004F   75..00       MOV     ?V0 + 1,#0x0
   \   000052   78..         MOV     R0,#?V0 + 0
   \   000054   12....       LCALL   ?PUSH_XSTACK_I_TWO
   \   000057   75..02       MOV     ?V0 + 0,#0x2
   \   00005A   78..         MOV     R0,#?V0 + 0
   \   00005C   12....       LCALL   ?PUSH_XSTACK_I_TWO
   \   00005F   7920         MOV     R1,#0x20
   \   000061   7C..         MOV     R4,#SampleApp_epDesc & 0xff
   \   000063   7D..         MOV     R5,#(SampleApp_epDesc >> 8) & 0xff
   \   000065   7A..         MOV     R2,#SampleApp_Flash_DstAddr & 0xff
   \   000067   7B..         MOV     R3,#(SampleApp_Flash_DstAddr >> 8) & 0xff
   \   000069   12....       LCALL   ??AF_DataRequest?relay
   \   00006C   7409         MOV     A,#0x9
   \   00006E   12....       LCALL   ?DEALLOC_XSTACK8
    474            {
    475            }
    476            else
    477            {
    478              // Error occurred in request to send.
    479            }
    480          }
   \   000071   7403         MOV     A,#0x3
   \   000073   80..         SJMP    ?Subroutine0

   \                                 In  segment BANK_RELAYS, align 1
   \                     ??SampleApp_Init?relay:
   \   000000   12....       LCALL   ?BDISPATCH
   \   000003   ......       DC24    SampleApp_Init

   \                                 In  segment BANK_RELAYS, align 1
   \                     ??SampleApp_ProcessEvent?relay:
   \   000000   12....       LCALL   ?BDISPATCH
   \   000003   ......       DC24    SampleApp_ProcessEvent

   \                                 In  segment BANK_RELAYS, align 1
   \                     ??SampleApp_HandleKeys?relay:
   \   000000   12....       LCALL   ?BDISPATCH
   \   000003   ......       DC24    SampleApp_HandleKeys

   \                                 In  segment BANK_RELAYS, align 1
   \                     ??SampleApp_MessageMSGCB?relay:
   \   000000   12....       LCALL   ?BDISPATCH
   \   000003   ......       DC24    SampleApp_MessageMSGCB

   \                                 In  segment BANK_RELAYS, align 1
   \                     ??SampleApp_SendPeriodicMessage?relay:
   \   000000   12....       LCALL   ?BDISPATCH
   \   000003   ......       DC24    SampleApp_SendPeriodicMessage

   \                                 In  segment BANK_RELAYS, align 1
   \                     ??SampleApp_SendFlashMessage?relay:
   \   000000   12....       LCALL   ?BDISPATCH
   \   000003   ......       DC24    SampleApp_SendFlashMessage

   \                                 In  segment XDATA_ROM_C, align 1
   \                     `?<Constant "Group 1">`:
   \   000000   47726F75     DB "Group 1"
   \            70203100

   \                                 In  segment XDATA_ROM_C, align 1
   \                     `?<Constant "helloWorld\\r\\n">`:
   \   000000   68656C6C     DB "helloWorld\015\012"
   \            6F576F72
   \            6C640D0A
   \            00      
    481          
    482          /*********************************************************************
    483          *********************************************************************/

   Maximum stack usage in bytes:

     Function                       ISTACK PSTACK XSTACK
     --------                       ------ ------ ------
     SampleApp_HandleKeys               0      0     21
       -> HalLedBlink                   0      0     18
       -> HalUARTWrite                  0      0     18
     SampleApp_Init                     0      0     14
       -> afRegister                    0      0     22
       -> RegisterForKeys               0      0     22
       -> osal_memcpy                   0      0     28
       -> aps_AddGroup                  0      0     22
       -> RegisterForKeys               0      0     22
       -> MT_UartInit                   0      0     22
       -> MT_UartRegisterTaskID         0      0     22
     SampleApp_MessageMSGCB             0      0     22
       -> HalLedBlink                   0      0     20
     SampleApp_ProcessEvent             0      0     12
       -> osal_msg_receive              0      0     24
       -> HalLedBlink                   0      0     24
       -> osal_msg_deallocate           0      0     24
       -> osal_msg_receive              0      0     24
       -> SampleApp_HandleKeys          0      0     24
       -> SampleApp_MessageMSGCB        0      0     24
       -> SampleApp_SendPeriodicMessage
                                        0      0     24
       -> osal_rand                     0      0     24
       -> osal_start_timerEx            0      0     24
       -> HalLedBlink                   0      0     24
     SampleApp_SendFlashMessage         1      0     22
       -> AF_DataRequest                0      0     44
     SampleApp_SendPeriodicMessage      0      0     31
       -> AF_DataRequest                0      0     38


   Segment part sizes:

     Function/Label                        Bytes
     --------------                        -----
     SampleApp_ClusterList                    4
     SampleApp_SimpleDesc                    12
     SampleApp_epDesc                         6
     SampleApp_TaskID                         1
     SampleApp_NwkState                       1
     SampleApp_TransID                        1
     SampleApp_Periodic_DstAddr              12
     SampleApp_Flash_DstAddr                 12
     SampleApp_Group                         18
     SampleAppPeriodicCounter                 1
     SampleAppFlashCounter                    1
     SampleApp_Init                         169
     SampleApp_ProcessEvent                 200
     SampleApp_HandleKeys                    41
     SampleApp_MessageMSGCB                  83
     ??Subroutine1_0                          5
     SampleApp_SendPeriodicMessage           66
     ?Subroutine0                             3
     SampleApp_SendFlashMessage             117
     ??SampleApp_Init?relay                   6
     ??SampleApp_ProcessEvent?relay           6
     ??SampleApp_HandleKeys?relay             6
     ??SampleApp_MessageMSGCB?relay           6
     ??SampleApp_SendPeriodicMessage?relay    6
     ??SampleApp_SendFlashMessage?relay       6
     ?<Constant "Group 1">                    8
     ?<Constant "helloWorld\r\n">            13

 
 684 bytes in segment BANKED_CODE
  36 bytes in segment BANK_RELAYS
  37 bytes in segment XDATA_ROM_C
  53 bytes in segment XDATA_Z
 
 720 bytes of CODE  memory
  37 bytes of CONST memory
  53 bytes of XDATA memory

Errors: none
Warnings: none
