###############################################################################
#                                                                             #
# IAR C/C++ Compiler V8.10.1.10194/W32 for 8051         26/Oct/2018  11:09:14 #
# Copyright 2004-2011 IAR Systems AB.                                         #
#                                                                             #
#    Core               =  plain                                              #
#    Code model         =  banked                                             #
#    Data model         =  large                                              #
#    Calling convention =  xdata reentrant                                    #
#    Constant location  =  data_rom                                           #
#    Dptr setup         =  1,16                                               #
#    Source file        =  D:\zigbee\cc2530_study\ZStack\Projects\zstack\Samp #
#                          les\SampleAppTest04\Source\SampleApp.c             #
#    Command line       =  -f D:\zigbee\cc2530_study\ZStack\Projects\zstack\S #
#                          amples\SampleAppTest04\CC2530DB\..\..\..\Tools\CC2 #
#                          530DB\f8wRouter.cfg (-DCPU32MHZ                    #
#                          -DROOT=__near_func -DMAC_CFG_APP_PENDING_QUEUE=TRU #
#                          E -DMAC_CFG_TX_DATA_MAX=5 -DMAC_CFG_TX_MAX=8       #
#                          -DMAC_CFG_RX_MAX=5 -DRTR_NWK) -f                   #
#                          D:\zigbee\cc2530_study\ZStack\Projects\zstack\Samp #
#                          les\SampleAppTest04\CC2530DB\..\..\..\Tools\CC2530 #
#                          DB\f8wConfig.cfg (-DZIGBEEPRO -DSECURE=0           #
#                          -DZG_SECURE_DYNAMIC=0 -DREFLECTOR                  #
#                          -DDEFAULT_CHANLIST=0x00002000                      #
#                          -DZDAPP_CONFIG_PAN_ID=0xFFFF                       #
#                          -DNWK_START_DELAY=100 -DEXTENDED_JOINING_RANDOM_MA #
#                          SK=0x007F -DBEACON_REQUEST_DELAY=100               #
#                          -DBEACON_REQ_DELAY_MASK=0x00FF                     #
#                          -DLINK_STATUS_JITTER_MASK=0x007F                   #
#                          -DROUTE_EXPIRY_TIME=30 -DAPSC_ACK_WAIT_DURATION_PO #
#                          LLED=3000 -DNWK_INDIRECT_MSG_TIMEOUT=7             #
#                          -DMAX_RREQ_ENTRIES=8 -DAPSC_MAX_FRAME_RETRIES=3    #
#                          -DNWK_MAX_DATA_RETRIES=2                           #
#                          -DMAX_POLL_FAILURE_RETRIES=2 -DMAX_BCAST=9         #
#                          -DAPS_MAX_GROUPS=16 -DMAX_RTG_ENTRIES=40           #
#                          -DNWK_MAX_BINDING_ENTRIES=4                        #
#                          -DMAX_BINDING_CLUSTER_IDS=4 "-DDEFAULT_KEY={0x01,  #
#                          0x03, 0x05, 0x07, 0x09, 0x0B, 0x0D, 0x0F, 0x00,    #
#                          0x02, 0x04, 0x06, 0x08, 0x0A, 0x0C, 0x0D}"         #
#                          -DMAC_MAX_FRAME_SIZE=116                           #
#                          -DZDNWKMGR_MIN_TRANSMISSIONS=20 "-DCONST=const     #
#                          __code" -DGENERIC=__generic                        #
#                          -DRFD_RCVC_ALWAYS_ON=FALSE -DPOLL_RATE=1000        #
#                          -DQUEUED_POLL_RATE=100 -DRESPONSE_POLL_RATE=100)   #
#                          -DREJOIN_POLL_RATE=440 D:\zigbee\cc2530_study\ZSta #
#                          ck\Projects\zstack\Samples\SampleAppTest04\Source\ #
#                          SampleApp.c -D ZTOOL_P1 -D xMT_TASK -D             #
#                          xMT_SYS_FUNC -D xMT_ZDO_FUNC -D                    #
#                          xLCD_SUPPORTED=DEBUG -lC                           #
#                          D:\zigbee\cc2530_study\ZStack\Projects\zstack\Samp #
#                          les\SampleAppTest04\CC2530DB\RouterEB\List\ -lA    #
#                          D:\zigbee\cc2530_study\ZStack\Projects\zstack\Samp #
#                          les\SampleAppTest04\CC2530DB\RouterEB\List\        #
#                          --diag_suppress Pe001,Pa010 -o                     #
#                          D:\zigbee\cc2530_study\ZStack\Projects\zstack\Samp #
#                          les\SampleAppTest04\CC2530DB\RouterEB\Obj\ -e      #
#                          --no_code_motion --debug --core=plain --dptr=16,1  #
#                          --data_model=large --code_model=banked             #
#                          --calling_convention=xdata_reentrant               #
#                          --place_constants=data_rom --nr_virtual_regs 16    #
#                          -I D:\zigbee\cc2530_study\ZStack\Projects\zstack\S #
#                          amples\SampleAppTest04\CC2530DB\ -I                #
#                          D:\zigbee\cc2530_study\ZStack\Projects\zstack\Samp #
#                          les\SampleAppTest04\CC2530DB\..\Source\ -I         #
#                          D:\zigbee\cc2530_study\ZStack\Projects\zstack\Samp #
#                          les\SampleAppTest04\CC2530DB\..\..\..\ZMain\TI2530 #
#                          DB\ -I D:\zigbee\cc2530_study\ZStack\Projects\zsta #
#                          ck\Samples\SampleAppTest04\CC2530DB\..\..\..\..\.. #
#                          \Components\hal\include\ -I                        #
#                          D:\zigbee\cc2530_study\ZStack\Projects\zstack\Samp #
#                          les\SampleAppTest04\CC2530DB\..\..\..\..\..\Compon #
#                          ents\hal\target\CC2530EB\ -I                       #
#                          D:\zigbee\cc2530_study\ZStack\Projects\zstack\Samp #
#                          les\SampleAppTest04\CC2530DB\..\..\..\..\..\Compon #
#                          ents\mac\include\ -I D:\zigbee\cc2530_study\ZStack #
#                          \Projects\zstack\Samples\SampleAppTest04\CC2530DB\ #
#                          ..\..\..\..\..\Components\mac\high_level\ -I       #
#                          D:\zigbee\cc2530_study\ZStack\Projects\zstack\Samp #
#                          les\SampleAppTest04\CC2530DB\..\..\..\..\..\Compon #
#                          ents\mac\low_level\srf04\ -I                       #
#                          D:\zigbee\cc2530_study\ZStack\Projects\zstack\Samp #
#                          les\SampleAppTest04\CC2530DB\..\..\..\..\..\Compon #
#                          ents\mac\low_level\srf04\single_chip\ -I           #
#                          D:\zigbee\cc2530_study\ZStack\Projects\zstack\Samp #
#                          les\SampleAppTest04\CC2530DB\..\..\..\..\..\Compon #
#                          ents\mt\ -I D:\zigbee\cc2530_study\ZStack\Projects #
#                          \zstack\Samples\SampleAppTest04\CC2530DB\..\..\..\ #
#                          ..\..\Components\osal\include\ -I                  #
#                          D:\zigbee\cc2530_study\ZStack\Projects\zstack\Samp #
#                          les\SampleAppTest04\CC2530DB\..\..\..\..\..\Compon #
#                          ents\services\saddr\ -I D:\zigbee\cc2530_study\ZSt #
#                          ack\Projects\zstack\Samples\SampleAppTest04\CC2530 #
#                          DB\..\..\..\..\..\Components\services\sdata\ -I    #
#                          D:\zigbee\cc2530_study\ZStack\Projects\zstack\Samp #
#                          les\SampleAppTest04\CC2530DB\..\..\..\..\..\Compon #
#                          ents\stack\af\ -I D:\zigbee\cc2530_study\ZStack\Pr #
#                          ojects\zstack\Samples\SampleAppTest04\CC2530DB\..\ #
#                          ..\..\..\..\Components\stack\nwk\ -I               #
#                          D:\zigbee\cc2530_study\ZStack\Projects\zstack\Samp #
#                          les\SampleAppTest04\CC2530DB\..\..\..\..\..\Compon #
#                          ents\stack\sapi\ -I D:\zigbee\cc2530_study\ZStack\ #
#                          Projects\zstack\Samples\SampleAppTest04\CC2530DB\. #
#                          .\..\..\..\..\Components\stack\sec\ -I             #
#                          D:\zigbee\cc2530_study\ZStack\Projects\zstack\Samp #
#                          les\SampleAppTest04\CC2530DB\..\..\..\..\..\Compon #
#                          ents\stack\sys\ -I D:\zigbee\cc2530_study\ZStack\P #
#                          rojects\zstack\Samples\SampleAppTest04\CC2530DB\.. #
#                          \..\..\..\..\Components\stack\zdo\ -I              #
#                          D:\zigbee\cc2530_study\ZStack\Projects\zstack\Samp #
#                          les\SampleAppTest04\CC2530DB\..\..\..\..\..\Compon #
#                          ents\zmac\ -I D:\zigbee\cc2530_study\ZStack\Projec #
#                          ts\zstack\Samples\SampleAppTest04\CC2530DB\..\..\. #
#                          .\..\..\Components\zmac\f8w\ -Ohz                  #
#    List file          =  D:\zigbee\cc2530_study\ZStack\Projects\zstack\Samp #
#                          les\SampleAppTest04\CC2530DB\RouterEB\List\SampleA #
#                          pp.lst                                             #
#    Object file        =  D:\zigbee\cc2530_study\ZStack\Projects\zstack\Samp #
#                          les\SampleAppTest04\CC2530DB\RouterEB\Obj\SampleAp #
#                          p.r51                                              #
#                                                                             #
#                                                                             #
###############################################################################

D:\zigbee\cc2530_study\ZStack\Projects\zstack\Samples\SampleAppTest04\Source\SampleApp.c
      1          /**************************************************************************************************
      2            Filename:       SampleApp.c
      3            Revised:        $Date: 2009-03-18 15:56:27 -0700 (Wed, 18 Mar 2009) $
      4            Revision:       $Revision: 19453 $
      5          
      6            Description:    Sample Application (no Profile).
      7          
      8          
      9            Copyright 2007 Texas Instruments Incorporated. All rights reserved.
     10          
     11            IMPORTANT: Your use of this Software is limited to those specific rights
     12            granted under the terms of a software license agreement between the user
     13            who downloaded the software, his/her employer (which must be your employer)
     14            and Texas Instruments Incorporated (the "License").  You may not use this
     15            Software unless you agree to abide by the terms of the License. The License
     16            limits your use, and you acknowledge, that the Software may not be modified,
     17            copied or distributed unless embedded on a Texas Instruments microcontroller
     18            or used solely and exclusively in conjunction with a Texas Instruments radio
     19            frequency transceiver, which is integrated into your product.  Other than for
     20            the foregoing purpose, you may not use, reproduce, copy, prepare derivative
     21            works of, modify, distribute, perform, display or sell this Software and/or
     22            its documentation for any purpose.
     23          
     24            YOU FURTHER ACKNOWLEDGE AND AGREE THAT THE SOFTWARE AND DOCUMENTATION ARE
     25            PROVIDED AS IS?WITHOUT WARRANTY OF ANY KIND, EITHER EXPRESS OR IMPLIED,
     26            INCLUDING WITHOUT LIMITATION, ANY WARRANTY OF MERCHANTABILITY, TITLE,
     27            NON-INFRINGEMENT AND FITNESS FOR A PARTICULAR PURPOSE. IN NO EVENT SHALL
     28            TEXAS INSTRUMENTS OR ITS LICENSORS BE LIABLE OR OBLIGATED UNDER CONTRACT,
     29            NEGLIGENCE, STRICT LIABILITY, CONTRIBUTION, BREACH OF WARRANTY, OR OTHER
     30            LEGAL EQUITABLE THEORY ANY DIRECT OR INDIRECT DAMAGES OR EXPENSES
     31            INCLUDING BUT NOT LIMITED TO ANY INCIDENTAL, SPECIAL, INDIRECT, PUNITIVE
     32            OR CONSEQUENTIAL DAMAGES, LOST PROFITS OR LOST DATA, COST OF PROCUREMENT
     33            OF SUBSTITUTE GOODS, TECHNOLOGY, SERVICES, OR ANY CLAIMS BY THIRD PARTIES
     34            (INCLUDING BUT NOT LIMITED TO ANY DEFENSE THEREOF), OR OTHER SIMILAR COSTS.
     35          
     36            Should you have any questions regarding your right to use this Software,
     37            contact Texas Instruments Incorporated at www.TI.com.
     38          **************************************************************************************************/
     39          
     40          /*********************************************************************
     41            This application isn't intended to do anything useful, it is
     42            intended to be a simple example of an application's structure.
     43          
     44            This application sends it's messages either as broadcast or
     45            broadcast filtered group messages.  The other (more normal)
     46            message addressing is unicast.  Most of the other sample
     47            applications are written to support the unicast message model.
     48          
     49            Key control:
     50              SW1:  Sends a flash command to all devices in Group 1.
     51              SW2:  Adds/Removes (toggles) this device in and out
     52                    of Group 1.  This will enable and disable the
     53                    reception of the flash command.
     54          *********************************************************************/
     55          
     56          /*********************************************************************
     57           * INCLUDES
     58           */
     59          #include "OSAL.h"
     60          #include "ZGlobals.h"
     61          #include "AF.h"
     62          #include "aps_groups.h"
     63          #include "ZDApp.h"
     64          
     65          #include "SampleApp.h"
     66          #include "SampleAppHw.h"
     67          
     68          #include "OnBoard.h"

   \                                 In  segment SFR_AN, at 0x90
   \   union <unnamed> volatile __sfr _A_P1
   \                     _A_P1:
   \   000000                DS 1

   \                                 In  segment SFR_AN, at 0xfe
   \   unsigned char volatile __sfr P1DIR
   \                     P1DIR:
   \   000000                DS 1
     69          
     70          /* HAL */
     71          #include "hal_lcd.h"
     72          #include "hal_led.h"
     73          #include "hal_key.h"
     74          #include "MT_APP.h"
     75          #include "MT_UART.h"
     76          #include "MT.h"
     77          
     78          
     79          #include <string.h>
     80          /*********************************************************************
     81           * MACROS
     82           */
     83          
     84          /*********************************************************************
     85           * CONSTANTS
     86           */
     87          
     88          /*********************************************************************
     89           * TYPEDEFS
     90           */
     91          
     92          /*********************************************************************
     93           * GLOBAL VARIABLES
     94           */
     95          
     96          // This list should be filled with Application specific Cluster IDs.

   \                                 In  segment XDATA_ROM_C, align 1
     97          const cId_t SampleApp_ClusterList[SAMPLEAPP_MAX_CLUSTERS] =
   \                     SampleApp_ClusterList:
   \   000000   0100         DW 1
   \   000002   0200         DW 2
   \   000004   0000         DW 0
     98          {
     99            SAMPLEAPP_PERIODIC_CLUSTERID,
    100            SAMPLEAPP_FLASH_CLUSTERID
    101          };
    102          

   \                                 In  segment XDATA_ROM_C, align 1
    103          const SimpleDescriptionFormat_t SampleApp_SimpleDesc =
   \                     SampleApp_SimpleDesc:
   \   000000   14           DB 20
   \   000001   080F         DW 3848
   \   000003   0100         DW 1
   \   000005   00           DB 0
   \   000006   03           DB 3
   \   000007   ....         DW SampleApp_ClusterList
   \   000009   03           DB 3
   \   00000A   ....         DW SampleApp_ClusterList
    104          {
    105            SAMPLEAPP_ENDPOINT,              //  int Endpoint;
    106            SAMPLEAPP_PROFID,                //  uint16 AppProfId[2];
    107            SAMPLEAPP_DEVICEID,              //  uint16 AppDeviceId[2];
    108            SAMPLEAPP_DEVICE_VERSION,        //  int   AppDevVer:4;
    109            SAMPLEAPP_FLAGS,                 //  int   AppFlags:4;
    110            SAMPLEAPP_MAX_CLUSTERS,          //  uint8  AppNumInClusters;
    111            (cId_t *)SampleApp_ClusterList,  //  uint8 *pAppInClusterList;
    112            SAMPLEAPP_MAX_CLUSTERS,          //  uint8  AppNumInClusters;
    113            (cId_t *)SampleApp_ClusterList   //  uint8 *pAppInClusterList;
    114          };
    115          
    116          // This is the Endpoint/Interface description.  It is defined here, but
    117          // filled-in in SampleApp_Init().  Another way to go would be to fill
    118          // in the structure here and make it a "const" (in code space).  The
    119          // way it's defined in this sample app it is define in RAM.

   \                                 In  segment XDATA_Z, align 1, keep-with-next
    120          endPointDesc_t SampleApp_epDesc;
   \                     SampleApp_epDesc:
   \   000000                DS 6
   \   000006                REQUIRE __INIT_XDATA_Z
    121          
    122          /*********************************************************************
    123           * EXTERNAL VARIABLES
    124           */
    125          
    126          /*********************************************************************
    127           * EXTERNAL FUNCTIONS
    128           */
    129          
    130          /*********************************************************************
    131           * LOCAL VARIABLES
    132           */

   \                                 In  segment XDATA_Z, align 1, keep-with-next
    133          uint8 SampleApp_TaskID;   // Task ID for internal task/event processing
   \                     SampleApp_TaskID:
   \   000000                DS 1
   \   000001                REQUIRE __INIT_XDATA_Z
    134                                    // This variable will be received when
    135                                    // SampleApp_Init() is called.

   \                                 In  segment XDATA_Z, align 1, keep-with-next
    136          devStates_t SampleApp_NwkState;
   \                     SampleApp_NwkState:
   \   000000                DS 1
   \   000001                REQUIRE __INIT_XDATA_Z
    137          

   \                                 In  segment XDATA_Z, align 1, keep-with-next
    138          uint8 SampleApp_TransID;  // This is the unique message ID (counter)
   \                     SampleApp_TransID:
   \   000000                DS 1
   \   000001                REQUIRE __INIT_XDATA_Z
    139          

   \                                 In  segment XDATA_Z, align 1, keep-with-next
    140          afAddrType_t SampleApp_Periodic_DstAddr;
   \                     SampleApp_Periodic_DstAddr:
   \   000000                DS 12
   \   00000C                REQUIRE __INIT_XDATA_Z

   \                                 In  segment XDATA_Z, align 1, keep-with-next
    141          afAddrType_t SampleApp_Flash_DstAddr;
   \                     SampleApp_Flash_DstAddr:
   \   000000                DS 12
   \   00000C                REQUIRE __INIT_XDATA_Z
    142          

   \                                 In  segment XDATA_Z, align 1, keep-with-next
    143          afAddrType_t SampleApp_String_DstAddr;
   \                     SampleApp_String_DstAddr:
   \   000000                DS 12
   \   00000C                REQUIRE __INIT_XDATA_Z
    144          

   \                                 In  segment XDATA_Z, align 1, keep-with-next
    145          aps_Group_t SampleApp_Group;
   \                     SampleApp_Group:
   \   000000                DS 18
   \   000012                REQUIRE __INIT_XDATA_Z
    146          

   \                                 In  segment XDATA_Z, align 1, keep-with-next
    147          uint8 SampleAppPeriodicCounter = 0;
   \                     SampleAppPeriodicCounter:
   \   000000                DS 1
   \   000001                REQUIRE __INIT_XDATA_Z

   \                                 In  segment XDATA_Z, align 1, keep-with-next
    148          uint8 SampleAppFlashCounter = 0;
   \                     SampleAppFlashCounter:
   \   000000                DS 1
   \   000001                REQUIRE __INIT_XDATA_Z
    149          
    150          /*********************************************************************
    151           * LOCAL FUNCTIONS
    152           */
    153          void SampleApp_HandleKeys( uint8 shift, uint8 keys );
    154          void SampleApp_MessageMSGCB( afIncomingMSGPacket_t *pckt );
    155          void SampleApp_SendPeriodicMessage( void );
    156          void SampleApp_SendFlashMessage( uint16 flashTime );
    157          void SampleApp_SendStringMessage( uint8* str,uint8 len );
    158          /*********************************************************************
    159           * NETWORK LAYER CALLBACKS
    160           */
    161          
    162          /*********************************************************************
    163           * PUBLIC FUNCTIONS
    164           */
    165          
    166          /*********************************************************************
    167           * @fn      SampleApp_Init
    168           *
    169           * @brief   Initialization function for the Generic App Task.
    170           *          This is called during initialization and should contain
    171           *          any application specific initialization (ie. hardware
    172           *          initialization/setup, table initialization, power up
    173           *          notificaiton ... ).
    174           *
    175           * @param   task_id - the ID assigned by OSAL.  This ID should be
    176           *                    used to send messages and set timers.
    177           *
    178           * @return  none
    179           */

   \                                 In  segment BANKED_CODE, align 1, keep-with-next
    180          void SampleApp_Init( uint8 task_id )
   \                     SampleApp_Init:
    181          {
   \   000000   74F5         MOV     A,#-0xb
   \   000002   12....       LCALL   ?BANKED_ENTER_XDATA
   \   000005                ; Saved register size: 11
   \   000005                ; Auto size: 0
   \   000005   E9           MOV     A,R1
    182            SampleApp_TaskID = task_id;
   \   000006   90....       MOV     DPTR,#SampleApp_TaskID
   \   000009   F0           MOVX    @DPTR,A
    183            SampleApp_NwkState = DEV_INIT;
   \   00000A   90....       MOV     DPTR,#SampleApp_NwkState
   \   00000D   7401         MOV     A,#0x1
   \   00000F   F0           MOVX    @DPTR,A
    184            SampleApp_TransID = 0;
   \   000010   90....       MOV     DPTR,#SampleApp_TransID
   \   000013   E4           CLR     A
   \   000014   F0           MOVX    @DPTR,A
    185          
    186            // Device hardware initialization can be added here or in main() (Zmain.c).
    187            // If the hardware is application specific - add it here.
    188            // If the hardware is other parts of the device add it in main().
    189          
    190           #if defined ( BUILD_ALL_DEVICES )
    191            // The "Demo" target is setup to have BUILD_ALL_DEVICES and HOLD_AUTO_START
    192            // We are looking at a jumper (defined in SampleAppHw.c) to be jumpered
    193            // together - if they are - we will start up a coordinator. Otherwise,
    194            // the device will start as a router.
    195            if ( readCoordinatorJumper() )
    196              zgDeviceLogicalType = ZG_DEVICETYPE_COORDINATOR;
    197            else
    198              zgDeviceLogicalType = ZG_DEVICETYPE_ROUTER;
    199          #endif // BUILD_ALL_DEVICES
    200          
    201          #if defined ( HOLD_AUTO_START )
    202            // HOLD_AUTO_START is a compile option that will surpress ZDApp
    203            //  from starting the device and wait for the application to
    204            //  start the device.
    205            ZDOInitDevice(0);
    206          #endif
    207          
    208            // Setup for the periodic message's destination address
    209            // Broadcast to everyone
    210            SampleApp_Periodic_DstAddr.addrMode = (afAddrMode_t)AddrBroadcast;
   \   000015   90....       MOV     DPTR,#SampleApp_Periodic_DstAddr + 8
   \   000018   740F         MOV     A,#0xf
   \   00001A   F0           MOVX    @DPTR,A
    211            SampleApp_Periodic_DstAddr.endPoint = SAMPLEAPP_ENDPOINT;
   \   00001B   A3           INC     DPTR
   \   00001C   7414         MOV     A,#0x14
   \   00001E   F0           MOVX    @DPTR,A
    212            SampleApp_Periodic_DstAddr.addr.shortAddr = 0xFFFF;
   \   00001F   90....       MOV     DPTR,#SampleApp_Periodic_DstAddr
   \   000022   74FF         MOV     A,#-0x1
   \   000024   F0           MOVX    @DPTR,A
   \   000025   A3           INC     DPTR
   \   000026   F0           MOVX    @DPTR,A
    213          
    214            // Setup for the flash command's destination address - Group 1
    215            SampleApp_Flash_DstAddr.addrMode = (afAddrMode_t)afAddrGroup;
   \   000027   90....       MOV     DPTR,#SampleApp_Flash_DstAddr + 8
   \   00002A   7401         MOV     A,#0x1
   \   00002C   F0           MOVX    @DPTR,A
    216            SampleApp_Flash_DstAddr.endPoint = SAMPLEAPP_ENDPOINT;
   \   00002D   A3           INC     DPTR
   \   00002E   7414         MOV     A,#0x14
   \   000030   F0           MOVX    @DPTR,A
    217            SampleApp_Flash_DstAddr.addr.shortAddr = SAMPLEAPP_FLASH_GROUP;
   \   000031   90....       MOV     DPTR,#SampleApp_Flash_DstAddr
   \   000034   7401         MOV     A,#0x1
   \   000036   F0           MOVX    @DPTR,A
   \   000037   A3           INC     DPTR
   \   000038   E4           CLR     A
   \   000039   F0           MOVX    @DPTR,A
    218            
    219            SampleApp_String_DstAddr.addrMode = (afAddrMode_t)AddrBroadcast;
   \   00003A   90....       MOV     DPTR,#SampleApp_String_DstAddr + 8
   \   00003D   740F         MOV     A,#0xf
   \   00003F   F0           MOVX    @DPTR,A
    220            SampleApp_String_DstAddr.endPoint = SAMPLEAPP_ENDPOINT;
   \   000040   A3           INC     DPTR
   \   000041   7414         MOV     A,#0x14
   \   000043   F0           MOVX    @DPTR,A
    221            SampleApp_String_DstAddr.addr.shortAddr = 0xFFFF;
   \   000044   90....       MOV     DPTR,#SampleApp_String_DstAddr
   \   000047   74FF         MOV     A,#-0x1
   \   000049   F0           MOVX    @DPTR,A
   \   00004A   A3           INC     DPTR
   \   00004B   F0           MOVX    @DPTR,A
    222          
    223            // Fill out the endpoint description.
    224            SampleApp_epDesc.endPoint = SAMPLEAPP_ENDPOINT;
   \   00004C   90....       MOV     DPTR,#SampleApp_epDesc
   \   00004F   7414         MOV     A,#0x14
   \   000051   F0           MOVX    @DPTR,A
    225            SampleApp_epDesc.task_id = &SampleApp_TaskID;
   \   000052   A3           INC     DPTR
   \   000053   74..         MOV     A,#SampleApp_TaskID & 0xff
   \   000055   F0           MOVX    @DPTR,A
   \   000056   A3           INC     DPTR
   \   000057   74..         MOV     A,#(SampleApp_TaskID >> 8) & 0xff
   \   000059   F0           MOVX    @DPTR,A
    226            SampleApp_epDesc.simpleDesc
    227                      = (SimpleDescriptionFormat_t *)&SampleApp_SimpleDesc;
   \   00005A   A3           INC     DPTR
   \   00005B   74..         MOV     A,#SampleApp_SimpleDesc & 0xff
   \   00005D   F0           MOVX    @DPTR,A
   \   00005E   A3           INC     DPTR
   \   00005F   74..         MOV     A,#(SampleApp_SimpleDesc >> 8) & 0xff
   \   000061   F0           MOVX    @DPTR,A
    228            SampleApp_epDesc.latencyReq = noLatencyReqs;
   \   000062   A3           INC     DPTR
   \   000063   E4           CLR     A
   \   000064   F0           MOVX    @DPTR,A
    229          
    230            // Register the endpoint description with the AF
    231            afRegister( &SampleApp_epDesc );
   \   000065                ; Setup parameters for call to function afRegister
   \   000065   7A..         MOV     R2,#SampleApp_epDesc & 0xff
   \   000067   7B..         MOV     R3,#(SampleApp_epDesc >> 8) & 0xff
   \   000069   12....       LCALL   ??afRegister?relay
    232          
    233            // Register for all key events - This app will handle all key events
    234            RegisterForKeys( SampleApp_TaskID );
   \   00006C                ; Setup parameters for call to function RegisterForKeys
   \   00006C   90....       MOV     DPTR,#SampleApp_TaskID
   \   00006F   E0           MOVX    A,@DPTR
   \   000070   F9           MOV     R1,A
   \   000071   12....       LCALL   ??RegisterForKeys?relay
    235          
    236            // By default, all devices start out in Group 1
    237            SampleApp_Group.ID = 0x0001;
   \   000074   90....       MOV     DPTR,#SampleApp_Group
   \   000077   7401         MOV     A,#0x1
   \   000079   F0           MOVX    @DPTR,A
   \   00007A   A3           INC     DPTR
   \   00007B   E4           CLR     A
   \   00007C   F0           MOVX    @DPTR,A
    238            osal_memcpy( SampleApp_Group.name, "Group 1", 7  );
   \   00007D                ; Setup parameters for call to function osal_memcpy
   \   00007D   75....       MOV     ?V0 + 0,#`?<Constant "Group 1">` & 0xff
   \   000080   75....       MOV     ?V0 + 1,#(`?<Constant "Group 1">` >> 8) & 0xff
   \   000083   F5..         MOV     ?V0 + 2,A
   \   000085   78..         MOV     R0,#?V0 + 0
   \   000087   12....       LCALL   ?PUSH_XSTACK_I_THREE
   \   00008A   7C07         MOV     R4,#0x7
   \   00008C   7D00         MOV     R5,#0x0
   \   00008E   7A..         MOV     R2,#(SampleApp_Group + 2) & 0xff
   \   000090   7B..         MOV     R3,#((SampleApp_Group + 2) >> 8) & 0xff
   \   000092   12....       LCALL   ??osal_memcpy?relay
   \   000095   7403         MOV     A,#0x3
   \   000097   12....       LCALL   ?DEALLOC_XSTACK8
    239            aps_AddGroup( SAMPLEAPP_ENDPOINT, &SampleApp_Group );
   \   00009A                ; Setup parameters for call to function aps_AddGroup
   \   00009A   7A..         MOV     R2,#SampleApp_Group & 0xff
   \   00009C   7B..         MOV     R3,#(SampleApp_Group >> 8) & 0xff
   \   00009E   7914         MOV     R1,#0x14
   \   0000A0   12....       LCALL   ??aps_AddGroup?relay
    240          
    241          #if defined ( LCD_SUPPORTED )
    242            HalLcdWriteString( "SampleApp", HAL_LCD_LINE_1 );
    243          #endif
    244            
    245            RegisterForKeys( SampleApp_TaskID );
   \   0000A3                ; Setup parameters for call to function RegisterForKeys
   \   0000A3   90....       MOV     DPTR,#SampleApp_TaskID
   \   0000A6   E0           MOVX    A,@DPTR
   \   0000A7   F9           MOV     R1,A
   \   0000A8   12....       LCALL   ??RegisterForKeys?relay
    246            MT_UartInit();
   \   0000AB                ; Setup parameters for call to function MT_UartInit
   \   0000AB   12....       LCALL   ??MT_UartInit?relay
    247            MT_UartRegisterTaskID( SampleApp_TaskID );
   \   0000AE                ; Setup parameters for call to function MT_UartRegisterTaskID
   \   0000AE   90....       MOV     DPTR,#SampleApp_TaskID
   \   0000B1   E0           MOVX    A,@DPTR
   \   0000B2   F9           MOV     R1,A
   \   0000B3   12....       LCALL   ??MT_UartRegisterTaskID?relay
    248            HalUARTWrite(0,"UART IS OK!\r\n",strlen("UART IS OK!\r\n"));
   \   0000B6                ; Setup parameters for call to function HalUARTWrite
   \   0000B6   7C0D         MOV     R4,#0xd
   \   0000B8   7D00         MOV     R5,#0x0
   \   0000BA   7A..         MOV     R2,#`?<Constant "UART IS OK!\\r\\n">` & 0xff
   \   0000BC   7B..         MOV     R3,#(`?<Constant "UART IS OK!\\r\\n">` >> 8) & 0xff
   \   0000BE   7900         MOV     R1,#0x0
   \   0000C0   12....       LCALL   ??HalUARTWrite?relay
    249            P1DIR = 0xff;  // 设置P1为输出方式
   \   0000C3   75FEFF       MOV     0xfe,#-0x1
    250            P1 = 0xff;
   \   0000C6   7590FF       MOV     0x90,#-0x1
    251            HalLedSet(HAL_LED_1,HAL_LED_MODE_OFF);
   \   0000C9                ; Setup parameters for call to function HalLedSet
   \   0000C9   7A00         MOV     R2,#0x0
   \   0000CB   7901         MOV     R1,#0x1
   \   0000CD   12....       LCALL   ??HalLedSet?relay
    252            HalLedSet(HAL_LED_2,HAL_LED_MODE_OFF);
   \   0000D0                ; Setup parameters for call to function HalLedSet
   \   0000D0   7A00         MOV     R2,#0x0
   \   0000D2   7902         MOV     R1,#0x2
   \   0000D4   12....       LCALL   ??HalLedSet?relay
    253            
    254          }
   \   0000D7                REQUIRE ?Subroutine0
   \   0000D7                REQUIRE P1DIR
   \   0000D7                REQUIRE _A_P1
   \   0000D7                ; // Fall through to label ?Subroutine0

   \                                 In  segment BANKED_CODE, align 1, keep-with-next
   \                     ?Subroutine0:
   \   000000   7F03         MOV     R7,#0x3
   \   000002   02....       LJMP    ?BANKED_LEAVE_XDATA
    255          

   \                                 In  segment BANKED_CODE, align 1, keep-with-next
    256          void SampleApp_SerialCMD(mtOSALSerialData_t *cmdMsg)
   \                     SampleApp_SerialCMD:
    257          {
   \   000000   74F5         MOV     A,#-0xb
   \   000002   12....       LCALL   ?BANKED_ENTER_XDATA
   \   000005                ; Saved register size: 11
   \   000005                ; Auto size: 0
    258              uint8 len,*str=NULL; //len 有用数据长度
    259              str=cmdMsg->msg; //指向数据开头
   \   000005   8A82         MOV     DPL,R2
   \   000007   8B83         MOV     DPH,R3
   \   000009   A3           INC     DPTR
   \   00000A   A3           INC     DPTR
   \   00000B   12....       LCALL   ?Subroutine4 & 0xFFFF
    260              len=*str; //msg 里的第 1 个字节代表后面的数据长度
   \                     ??CrossCallReturnLabel_2:
   \   00000E   E0           MOVX    A,@DPTR
   \   00000F   F5..         MOV     ?V0 + 2,A
    261          /********打印出串口接收到的数据，用于提示*********/
    262              HalUARTWrite(HAL_UART_PORT_0,str+1,len);
   \   000011   A3           INC     DPTR
   \   000012   AE82         MOV     R6,DPL
   \   000014   AF83         MOV     R7,DPH
   \   000016                ; Setup parameters for call to function HalUARTWrite
   \   000016   FC           MOV     R4,A
   \   000017   7D00         MOV     R5,#0x0
   \   000019   EE           MOV     A,R6
   \   00001A   FA           MOV     R2,A
   \   00001B   EF           MOV     A,R7
   \   00001C   FB           MOV     R3,A
   \   00001D   7900         MOV     R1,#0x0
   \   00001F   12....       LCALL   ??HalUARTWrite?relay
    263              SampleApp_SendStringMessage(str+1,len);
   \   000022                ; Setup parameters for call to function SampleApp_SendStringMessage
   \   000022   A9..         MOV     R1,?V0 + 2
   \   000024   EE           MOV     A,R6
   \   000025   FA           MOV     R2,A
   \   000026   EF           MOV     A,R7
   \   000027   FB           MOV     R3,A
   \   000028   12....       LCALL   ??SampleApp_SendStringMessage?relay
    264          }
   \   00002B   80..         SJMP    ?Subroutine0

   \                                 In  segment BANKED_CODE, align 1, keep-with-next
   \                     ?Subroutine4:
   \   000000   E0           MOVX    A,@DPTR
   \   000001   F8           MOV     R0,A
   \   000002   A3           INC     DPTR
   \   000003   E0           MOVX    A,@DPTR
   \   000004   F9           MOV     R1,A
   \   000005                ; Setup parameters for call to function HalLedBlink
   \   000005   8882         MOV     DPL,R0
   \   000007   8983         MOV     DPH,R1
   \   000009   22           RET
    265          
    266          /*********************************************************************
    267           * @fn      SampleApp_ProcessEvent
    268           *
    269           * @brief   Generic Application Task event processor.  This function
    270           *          is called to process all events for the task.  Events
    271           *          include timers, messages and any other user defined events.
    272           *
    273           * @param   task_id  - The OSAL assigned task ID.
    274           * @param   events - events to process.  This is a bit map and can
    275           *                   contain more than one event.
    276           *
    277           * @return  none
    278           */

   \                                 In  segment BANKED_CODE, align 1, keep-with-next
    279          uint16 SampleApp_ProcessEvent( uint8 task_id, uint16 events )
   \                     SampleApp_ProcessEvent:
    280          {
   \   000000   74F4         MOV     A,#-0xc
   \   000002   12....       LCALL   ?BANKED_ENTER_XDATA
   \   000005                ; Saved register size: 12
   \   000005                ; Auto size: 0
   \   000005   8A..         MOV     ?V0 + 0,R2
   \   000007   8B..         MOV     ?V0 + 1,R3
    281            afIncomingMSGPacket_t *MSGpkt;
    282            (void)task_id;  // Intentionally unreferenced parameter
    283          
    284            if ( events & SYS_EVENT_MSG )
   \   000009   EB           MOV     A,R3
   \   00000A   5480         ANL     A,#0x80
   \   00000C   6050         JZ      ??SampleApp_ProcessEvent_0
    285            {
    286              MSGpkt = (afIncomingMSGPacket_t *)osal_msg_receive( SampleApp_TaskID );
   \   00000E                ; Setup parameters for call to function osal_msg_receive
   \   00000E   800D         SJMP    ??SampleApp_ProcessEvent_1
    287              while ( MSGpkt )
    288              {
    289                switch ( MSGpkt->hdr.event )
    290                {
    291                  // Received when a key is pressed
    292                  case KEY_CHANGE:
    293                    SampleApp_HandleKeys( ((keyChange_t *)MSGpkt)->state, ((keyChange_t *)MSGpkt)->keys );
    294                    
    295                    break;
    296                  case CMD_SERIAL_MSG: //串口收到数据后由 MT_UART 层传递过来的/数据，编译时不定义 MT相关内容
    297                     SampleApp_SerialCMD((mtOSALSerialData_t *)MSGpkt);
    298                     break;
    299          
    300                  // Received when a messages is received (OTA) for this endpoint
    301                  case AF_INCOMING_MSG_CMD:
    302                    SampleApp_MessageMSGCB( MSGpkt );
    303                    break;
    304          
    305                  // Received whenever the device changes state in the network
    306                  case ZDO_STATE_CHANGE:
    307                    SampleApp_NwkState = (devStates_t)(MSGpkt->hdr.status);
   \                     ??SampleApp_ProcessEvent_2:
   \   000010   A3           INC     DPTR
   \   000011   E0           MOVX    A,@DPTR
   \   000012   90....       MOV     DPTR,#SampleApp_NwkState
   \   000015   F0           MOVX    @DPTR,A
    308                    if ( (SampleApp_NwkState == DEV_ZB_COORD)
    309                        || (SampleApp_NwkState == DEV_ROUTER)
    310                        || (SampleApp_NwkState == DEV_END_DEVICE) )
    311                    {
    312                      //HalLedBlink (HAL_LED_1, 3, 50, 1000); 
    313                      // Start sending the periodic message in a regular interval.
    314                      //osal_start_timerEx( SampleApp_TaskID,
    315                      //                  SAMPLEAPP_SEND_PERIODIC_MSG_EVT,
    316                      //                  SAMPLEAPP_SEND_PERIODIC_MSG_TIMEOUT );
    317                    }
    318                    else
    319                    {
    320                      // Device is no longer in the network
    321                    }
    322                    break;
    323          
    324                  default:
    325                    break;
    326                }
    327          
    328                // Release the memory
    329                osal_msg_deallocate( (uint8 *)MSGpkt );
   \                     ??SampleApp_ProcessEvent_3:
   \   000016                ; Setup parameters for call to function osal_msg_deallocate
   \   000016   EE           MOV     A,R6
   \   000017   FA           MOV     R2,A
   \   000018   EF           MOV     A,R7
   \   000019   FB           MOV     R3,A
   \   00001A   12....       LCALL   ??osal_msg_deallocate?relay
    330          
    331                // Next - if one is available
    332                MSGpkt = (afIncomingMSGPacket_t *)osal_msg_receive( SampleApp_TaskID );
   \   00001D                ; Setup parameters for call to function osal_msg_receive
   \                     ??SampleApp_ProcessEvent_1:
   \   00001D   90....       MOV     DPTR,#SampleApp_TaskID
   \   000020   E0           MOVX    A,@DPTR
   \   000021   F9           MOV     R1,A
   \   000022   12....       LCALL   ??osal_msg_receive?relay
   \   000025   8A..         MOV     ?V0 + 2,R2
   \   000027   8B..         MOV     ?V0 + 3,R3
   \   000029   AE..         MOV     R6,?V0 + 2
   \   00002B   AF..         MOV     R7,?V0 + 3
   \   00002D   EE           MOV     A,R6
   \   00002E   4F           ORL     A,R7
   \   00002F   6024         JZ      ??SampleApp_ProcessEvent_4
   \   000031   8E82         MOV     DPL,R6
   \   000033   8F83         MOV     DPH,R7
   \   000035   E0           MOVX    A,@DPTR
   \   000036   14           DEC     A
   \   000037   600A         JZ      ??SampleApp_ProcessEvent_5
   \   000039   24E7         ADD     A,#-0x19
   \   00003B   600F         JZ      ??SampleApp_ProcessEvent_6
   \   00003D   2449         ADD     A,#0x49
   \   00003F   60CF         JZ      ??SampleApp_ProcessEvent_2
   \   000041   80D3         SJMP    ??SampleApp_ProcessEvent_3
   \                     ??SampleApp_ProcessEvent_5:
   \   000043                ; Setup parameters for call to function SampleApp_SerialCMD
   \   000043   EE           MOV     A,R6
   \   000044   FA           MOV     R2,A
   \   000045   EF           MOV     A,R7
   \   000046   FB           MOV     R3,A
   \   000047   12....       LCALL   ??SampleApp_SerialCMD?relay
   \   00004A   80CA         SJMP    ??SampleApp_ProcessEvent_3
   \                     ??SampleApp_ProcessEvent_6:
   \   00004C                ; Setup parameters for call to function SampleApp_MessageMSGCB
   \   00004C   EE           MOV     A,R6
   \   00004D   FA           MOV     R2,A
   \   00004E   EF           MOV     A,R7
   \   00004F   FB           MOV     R3,A
   \   000050   12....       LCALL   ??SampleApp_MessageMSGCB?relay
   \   000053   80C1         SJMP    ??SampleApp_ProcessEvent_3
    333              }
    334          
    335              // return unprocessed events
    336              return (events ^ SYS_EVENT_MSG);
   \                     ??SampleApp_ProcessEvent_4:
   \   000055   AA..         MOV     R2,?V0 + 0
   \   000057   E5..         MOV     A,?V0 + 1
   \   000059   6480         XRL     A,#0x80
   \   00005B   FB           MOV     R3,A
   \   00005C   8043         SJMP    ??SampleApp_ProcessEvent_7
    337            }
    338          
    339            // Send a message out - This event is generated by a timer
    340            //  (setup in SampleApp_Init()).
    341            if ( events & SAMPLEAPP_SEND_PERIODIC_MSG_EVT )
   \                     ??SampleApp_ProcessEvent_0:
   \   00005E   EA           MOV     A,R2
   \   00005F   A2E0         MOV     C,0xE0 /* A   */.0
   \   000061   5023         JNC     ??SampleApp_ProcessEvent_8
    342            {
    343              // Send the periodic message
    344              SampleApp_SendPeriodicMessage();
   \   000063                ; Setup parameters for call to function SampleApp_SendPeriodicMessage
   \   000063   12....       LCALL   ??SampleApp_SendPeriodicMessage?relay
    345          
    346              // Setup to send message again in normal period (+ a little jitter)
    347              osal_start_timerEx( SampleApp_TaskID, SAMPLEAPP_SEND_PERIODIC_MSG_EVT,
    348                  (SAMPLEAPP_SEND_PERIODIC_MSG_TIMEOUT + (osal_rand() & 0x00FF)) );
   \   000066                ; Setup parameters for call to function osal_rand
   \   000066   12....       LCALL   ??osal_rand?relay
   \   000069                ; Setup parameters for call to function osal_start_timerEx
   \   000069   EA           MOV     A,R2
   \   00006A   2488         ADD     A,#-0x78
   \   00006C   FC           MOV     R4,A
   \   00006D   E4           CLR     A
   \   00006E   3413         ADDC    A,#0x13
   \   000070   FD           MOV     R5,A
   \   000071   7A01         MOV     R2,#0x1
   \   000073   7B00         MOV     R3,#0x0
   \   000075   90....       MOV     DPTR,#SampleApp_TaskID
   \   000078   E0           MOVX    A,@DPTR
   \   000079   F9           MOV     R1,A
   \   00007A   12....       LCALL   ??osal_start_timerEx?relay
    349          
    350              // return unprocessed events
    351              return (events ^ SAMPLEAPP_SEND_PERIODIC_MSG_EVT);
   \   00007D   E5..         MOV     A,?V0 + 0
   \   00007F   6401         XRL     A,#0x1
   \                     ??SampleApp_ProcessEvent_9:
   \   000081   FA           MOV     R2,A
   \   000082   AB..         MOV     R3,?V0 + 1
   \   000084   801B         SJMP    ??SampleApp_ProcessEvent_7
    352            }
    353            
    354            if (events & SAMPLEAPP_LOVE_LED_0){
   \                     ??SampleApp_ProcessEvent_8:
   \   000086   5402         ANL     A,#0x2
   \   000088   6013         JZ      ??SampleApp_ProcessEvent_10
    355              HalLedBlink (HAL_LED_2, 3, 50, 1000);  
   \   00008A                ; Setup parameters for call to function HalLedBlink
   \   00008A   7CE8         MOV     R4,#-0x18
   \   00008C   7D03         MOV     R5,#0x3
   \   00008E   7B32         MOV     R3,#0x32
   \   000090   7A03         MOV     R2,#0x3
   \   000092   7902         MOV     R1,#0x2
   \   000094   12....       LCALL   ??HalLedBlink?relay
    356              return (events ^ SAMPLEAPP_LOVE_LED_0);
   \   000097   E5..         MOV     A,?V0 + 0
   \   000099   6402         XRL     A,#0x2
   \   00009B   80E4         SJMP    ??SampleApp_ProcessEvent_9
    357            }
    358            
    359            // Discard unknown events
    360            return 0;
   \                     ??SampleApp_ProcessEvent_10:
   \   00009D   7A00         MOV     R2,#0x0
   \   00009F   7B00         MOV     R3,#0x0
   \                     ??SampleApp_ProcessEvent_7:
   \   0000A1                REQUIRE ?Subroutine1
   \   0000A1                ; // Fall through to label ?Subroutine1
    361          }

   \                                 In  segment BANKED_CODE, align 1, keep-with-next
   \                     ?Subroutine1:
   \   000000   7F04         MOV     R7,#0x4
   \   000002   02....       LJMP    ?BANKED_LEAVE_XDATA
    362          
    363          
    364          
    365          
    366          /*********************************************************************
    367           * Event Generation Functions
    368           */
    369          /*********************************************************************
    370           * @fn      SampleApp_HandleKeys
    371           *
    372           * @brief   Handles all key events for this device.
    373           *
    374           * @param   shift - true if in shift/alt.
    375           * @param   keys - bit field for key events. Valid entries:
    376           *                 HAL_KEY_SW_2
    377           *                 HAL_KEY_SW_1
    378           *
    379           * @return  none
    380           */

   \                                 In  segment BANKED_CODE, align 1, keep-with-next
    381          void SampleApp_HandleKeys( uint8 shift, uint8 keys )
   \                     SampleApp_HandleKeys:
    382          {
   \   000000                ; Saved register size: 0
   \   000000                ; Auto size: 0
    383            (void)shift;  // Intentionally unreferenced parameter
    384            
    385            if ( keys & HAL_KEY_SW_1 )
    386            {
    387              /* This key sends the Flash Command is sent to Group 1.
    388               * This device will not receive the Flash Command from this
    389               * device (even if it belongs to group 1).
    390               */
    391              //SampleApp_SendFlashMessage( SAMPLEAPP_FLASH_DURATION );
    392            }
    393          
    394            if ( keys & HAL_KEY_SW_2 )
    395            {
    396              /* The Flashr Command is sent to Group 1.
    397               * This key toggles this device in and out of group 1.
    398               * If this device doesn't belong to group 1, this application
    399               * will not receive the Flash command sent to group 1.
    400               */
    401              /*
    402              aps_Group_t *grp;
    403              grp = aps_FindGroup( SAMPLEAPP_ENDPOINT, SAMPLEAPP_FLASH_GROUP );
    404              if ( grp )
    405              {
    406                // Remove from the group
    407                aps_RemoveGroup( SAMPLEAPP_ENDPOINT, SAMPLEAPP_FLASH_GROUP );
    408              }
    409              else
    410              {
    411                // Add to the flash group
    412                aps_AddGroup( SAMPLEAPP_ENDPOINT, &SampleApp_Group );
    413              }
    414              */
    415            }
    416            
    417            if ( keys & HAL_KEY_SW_6){
    418              
    419              
    420            }
    421          }
   \   000000   02....       LJMP    ?BRET
    422          
    423          /*********************************************************************
    424           * LOCAL FUNCTIONS
    425           */
    426          
    427          /*********************************************************************
    428           * @fn      SampleApp_MessageMSGCB
    429           *
    430           * @brief   Data message processor callback.  This function processes
    431           *          any incoming data - probably from other devices.  So, based
    432           *          on cluster ID, perform the intended action.
    433           *
    434           * @param   none
    435           *
    436           * @return  none
    437           */

   \                                 In  segment BANKED_CODE, align 1, keep-with-next
    438          void SampleApp_MessageMSGCB( afIncomingMSGPacket_t *pkt )
   \                     SampleApp_MessageMSGCB:
    439          {
   \   000000   74F4         MOV     A,#-0xc
   \   000002   12....       LCALL   ?BANKED_ENTER_XDATA
   \   000005                ; Saved register size: 12
   \   000005                ; Auto size: 0
   \   000005   8A..         MOV     ?V0 + 0,R2
   \   000007   8B..         MOV     ?V0 + 1,R3
    440            uint16 flashTime;
    441          
    442            switch ( pkt->clusterId )
   \   000009   8A82         MOV     DPL,R2
   \   00000B   8B83         MOV     DPH,R3
   \   00000D   A3           INC     DPTR
   \   00000E   A3           INC     DPTR
   \   00000F   A3           INC     DPTR
   \   000010   A3           INC     DPTR
   \   000011   E0           MOVX    A,@DPTR
   \   000012   F5..         MOV     ?V0 + 2,A
   \   000014   A3           INC     DPTR
   \   000015   E0           MOVX    A,@DPTR
   \   000016   F5..         MOV     ?V0 + 3,A
   \   000018   78..         MOV     R0,#?V0 + 2
   \   00001A   12....       LCALL   ?US_SWITCH_DENSE
   \                     `?<Jumptable for SampleApp_MessageMSGCB>_0`:
   \   00001D   0200         DW        2
   \   00001F   01           DB        1
   \   000020   ....         DW        ??SampleApp_MessageMSGCB_0
   \   000022   ....         DW        ??SampleApp_MessageMSGCB_1
   \   000024   ....         DW        ??SampleApp_MessageMSGCB_2
   \                     ??SampleApp_MessageMSGCB_1:
   \   000026   EA           MOV     A,R2
   \   000027   2422         ADD     A,#0x22
   \   000029   F582         MOV     DPL,A
   \   00002B   EB           MOV     A,R3
   \   00002C   3400         ADDC    A,#0x0
   \   00002E   F583         MOV     DPH,A
   \   000030   12....       LCALL   ?Subroutine4 & 0xFFFF
   \                     ??CrossCallReturnLabel_3:
   \   000033   A3           INC     DPTR
   \   000034   E0           MOVX    A,@DPTR
   \   000035   FA           MOV     R2,A
   \   000036   8882         MOV     DPL,R0
   \   000038   8983         MOV     DPH,R1
   \   00003A   A3           INC     DPTR
   \   00003B   A3           INC     DPTR
   \   00003C   E0           MOVX    A,@DPTR
   \   00003D   F9           MOV     R1,A
   \   00003E   EA           MOV     A,R2
   \   00003F   2400         ADD     A,#0x0
   \   000041   F5..         MOV     ?V0 + 0,A
   \   000043   E4           CLR     A
   \   000044   39           ADDC    A,R1
   \   000045   F5..         MOV     ?V0 + 1,A
   \   000047   7402         MOV     A,#0x2
   \   000049   78..         MOV     R0,#?V0 + 0
   \   00004B   12....       LCALL   ?US_SHR
   \   00004E   AC..         MOV     R4,?V0 + 0
   \   000050   AD..         MOV     R5,?V0 + 1
   \   000052   7B32         MOV     R3,#0x32
   \   000054   7A04         MOV     R2,#0x4
   \   000056   7908         MOV     R1,#0x8
    443            {
    444              case SAMPLEAPP_PERIODIC_CLUSTERID:
    445                break;
    446          
    447              case SAMPLEAPP_FLASH_CLUSTERID:
    448                flashTime = BUILD_UINT16(pkt->cmd.Data[1], pkt->cmd.Data[2] );
    449                HalLedBlink( HAL_LED_4, 4, 50, (flashTime / 4) );
   \   000058   12....       LCALL   ??HalLedBlink?relay
    450                break;
    451              case SAMPLEAPP_STRING_CLUSTERID:
    452                uint8 len = pkt->cmd.DataLength;
                       ^
Warning[Pe1072]: a declaration cannot have a label
    453                (void )len;
    454                for(uint8 i=0;i<len;i++){
    455                  if(pkt->cmd.Data[i]=='1'){
    456                    //HalLedOnOff (HAL_LED_1, HAL_LED_MODE_ON);
    457                    HalLedSet(HAL_LED_1,HAL_LED_MODE_ON);
    458                    HalUARTWrite(0,"1\r\n",3);
    459                  }else if(pkt->cmd.Data[i]=='0'){
    460                    HalLedSet(HAL_LED_1,HAL_LED_MODE_OFF);
    461                    HalUARTWrite(0,"0\r\n",3);
    462                  }else{
    463                    HalUARTWrite(0,"error\r\n",strlen("error\r\n"));
    464                  }
    465                }
    466                break;
    467            }
    468          }
   \                     ??SampleApp_MessageMSGCB_0:
   \   00005B   80..         SJMP    ?Subroutine1
   \                     ??SampleApp_MessageMSGCB_2:
   \   00005D   EA           MOV     A,R2
   \   00005E   2420         ADD     A,#0x20
   \   000060   F582         MOV     DPL,A
   \   000062   EB           MOV     A,R3
   \   000063   3400         ADDC    A,#0x0
   \   000065   F583         MOV     DPH,A
   \   000067   E0           MOVX    A,@DPTR
   \   000068   FF           MOV     R7,A
   \   000069   7E00         MOV     R6,#0x0
   \   00006B   800E         SJMP    ??SampleApp_MessageMSGCB_3
   \                     ??SampleApp_MessageMSGCB_4:
   \   00006D                ; Setup parameters for call to function HalUARTWrite
   \   00006D   7C07         MOV     R4,#0x7
   \   00006F   7D00         MOV     R5,#0x0
   \   000071   7A..         MOV     R2,#`?<Constant "error\\r\\n">` & 0xff
   \   000073   7B..         MOV     R3,#(`?<Constant "error\\r\\n">` >> 8) & 0xff
   \                     ??SampleApp_MessageMSGCB_5:
   \   000075   7900         MOV     R1,#0x0
   \   000077   12....       LCALL   ??HalUARTWrite?relay
   \   00007A   0E           INC     R6
   \                     ??SampleApp_MessageMSGCB_3:
   \   00007B   EE           MOV     A,R6
   \   00007C   C3           CLR     C
   \   00007D   9F           SUBB    A,R7
   \   00007E   50DB         JNC     ??SampleApp_MessageMSGCB_0
   \   000080   EE           MOV     A,R6
   \   000081   F8           MOV     R0,A
   \   000082   12....       LCALL   ?Subroutine3 & 0xFFFF
   \                     ??CrossCallReturnLabel_0:
   \   000085   FA           MOV     R2,A
   \   000086   12....       LCALL   ?Subroutine5 & 0xFFFF
   \                     ??CrossCallReturnLabel_4:
   \   000089   6431         XRL     A,#0x31
   \   00008B   7011         JNZ     ??SampleApp_MessageMSGCB_6
   \   00008D                ; Setup parameters for call to function HalLedSet
   \   00008D   7A01         MOV     R2,#0x1
   \   00008F   7901         MOV     R1,#0x1
   \   000091   12....       LCALL   ??HalLedSet?relay
   \   000094                ; Setup parameters for call to function HalUARTWrite
   \   000094   7C03         MOV     R4,#0x3
   \   000096   7D00         MOV     R5,#0x0
   \   000098   7A..         MOV     R2,#`?<Constant "1\\r\\n">` & 0xff
   \   00009A   7B..         MOV     R3,#(`?<Constant "1\\r\\n">` >> 8) & 0xff
   \   00009C   80D7         SJMP    ??SampleApp_MessageMSGCB_5
   \                     ??SampleApp_MessageMSGCB_6:
   \   00009E   12....       LCALL   ?Subroutine3 & 0xFFFF
   \                     ??CrossCallReturnLabel_1:
   \   0000A1   12....       LCALL   ?Subroutine5 & 0xFFFF
   \                     ??CrossCallReturnLabel_5:
   \   0000A4   6430         XRL     A,#0x30
   \   0000A6   70C5         JNZ     ??SampleApp_MessageMSGCB_4
   \   0000A8                ; Setup parameters for call to function HalLedSet
   \   0000A8   7A00         MOV     R2,#0x0
   \   0000AA   7901         MOV     R1,#0x1
   \   0000AC   12....       LCALL   ??HalLedSet?relay
   \   0000AF                ; Setup parameters for call to function HalUARTWrite
   \   0000AF   7C03         MOV     R4,#0x3
   \   0000B1   7D00         MOV     R5,#0x0
   \   0000B3   7A..         MOV     R2,#`?<Constant "0\\r\\n">` & 0xff
   \   0000B5   7B..         MOV     R3,#(`?<Constant "0\\r\\n">` >> 8) & 0xff
   \   0000B7   80BC         SJMP    ??SampleApp_MessageMSGCB_5

   \                                 In  segment BANKED_CODE, align 1, keep-with-next
   \                     ?Subroutine5:
   \   000000   A3           INC     DPTR
   \   000001   E0           MOVX    A,@DPTR
   \   000002   3400         ADDC    A,#0x0
   \   000004   8A82         MOV     DPL,R2
   \   000006   F583         MOV     DPH,A
   \   000008   E0           MOVX    A,@DPTR
   \   000009   22           RET

   \                                 In  segment BANKED_CODE, align 1, keep-with-next
   \                     ?Subroutine3:
   \   000000   E5..         MOV     A,?V0 + 0
   \   000002   2422         ADD     A,#0x22
   \   000004   F582         MOV     DPL,A
   \   000006   E5..         MOV     A,?V0 + 1
   \   000008   3400         ADDC    A,#0x0
   \   00000A   F583         MOV     DPH,A
   \   00000C   E0           MOVX    A,@DPTR
   \   00000D   28           ADD     A,R0
   \   00000E   22           RET
    469          
    470          /*********************************************************************
    471           * @fn      SampleApp_SendPeriodicMessage
    472           *
    473           * @brief   Send the periodic message.
    474           *
    475           * @param   none
    476           *
    477           * @return  none
    478           */

   \                                 In  segment BANKED_CODE, align 1, keep-with-next
    479          void SampleApp_SendPeriodicMessage( void )
   \                     SampleApp_SendPeriodicMessage:
    480          {
   \   000000   74F6         MOV     A,#-0xa
   \   000002   12....       LCALL   ?BANKED_ENTER_XDATA
   \   000005                ; Saved register size: 10
   \   000005                ; Auto size: 0
    481            if ( AF_DataRequest( &SampleApp_Periodic_DstAddr, &SampleApp_epDesc,
    482                                 SAMPLEAPP_PERIODIC_CLUSTERID,
    483                                 1,
    484                                 (uint8*)&SampleAppPeriodicCounter,
    485                                 &SampleApp_TransID,
    486                                 AF_DISCV_ROUTE,
    487                                 AF_DEFAULT_RADIUS ) == afStatus_SUCCESS )
   \   000005                ; Setup parameters for call to function AF_DataRequest
   \   000005   75..1E       MOV     ?V0 + 0,#0x1e
   \   000008   78..         MOV     R0,#?V0 + 0
   \   00000A   12....       LCALL   ?PUSH_XSTACK_I_ONE
   \   00000D   75....       MOV     ?V0 + 0,#SampleApp_TransID & 0xff
   \   000010   75....       MOV     ?V0 + 1,#(SampleApp_TransID >> 8) & 0xff
   \   000013   78..         MOV     R0,#?V0 + 0
   \   000015   12....       LCALL   ?PUSH_XSTACK_I_TWO
   \   000018   75....       MOV     ?V0 + 0,#SampleAppPeriodicCounter & 0xff
   \   00001B   75....       MOV     ?V0 + 1,#(SampleAppPeriodicCounter >> 8) & 0xff
   \   00001E   78..         MOV     R0,#?V0 + 0
   \   000020   12....       LCALL   ?PUSH_XSTACK_I_TWO
   \   000023   75..01       MOV     ?V0 + 0,#0x1
   \   000026   75..00       MOV     ?V0 + 1,#0x0
   \   000029   78..         MOV     R0,#?V0 + 0
   \   00002B   12....       LCALL   ?PUSH_XSTACK_I_TWO
   \   00002E   78..         MOV     R0,#?V0 + 0
   \   000030   12....       LCALL   ?PUSH_XSTACK_I_TWO
   \   000033   7920         MOV     R1,#0x20
   \   000035   7C..         MOV     R4,#SampleApp_epDesc & 0xff
   \   000037   7D..         MOV     R5,#(SampleApp_epDesc >> 8) & 0xff
   \   000039   7A..         MOV     R2,#SampleApp_Periodic_DstAddr & 0xff
   \   00003B   7B..         MOV     R3,#(SampleApp_Periodic_DstAddr >> 8) & 0xff
   \   00003D                REQUIRE ?Subroutine2
   \   00003D                ; // Fall through to label ?Subroutine2
    488            {
    489              
    490            }
    491            else
    492            {
    493              // Error occurred in request to send.
    494            }
    495          }

   \                                 In  segment BANKED_CODE, align 1, keep-with-next
   \                     ?Subroutine2:
   \   000000   12....       LCALL   ??AF_DataRequest?relay
   \   000003   7409         MOV     A,#0x9
   \   000005                REQUIRE ??Subroutine6_0
   \   000005                ; // Fall through to label ??Subroutine6_0

   \                                 In  segment BANKED_CODE, align 1, keep-with-next
   \                     ??Subroutine6_0:
   \   000000   12....       LCALL   ?DEALLOC_XSTACK8
   \   000003   7F02         MOV     R7,#0x2
   \   000005   02....       LJMP    ?BANKED_LEAVE_XDATA
    496          
    497          /*********************************************************************
    498           * @fn      SampleApp_SendFlashMessage
    499           *
    500           * @brief   Send the flash message to group 1.
    501           *
    502           * @param   flashTime - in milliseconds
    503           *
    504           * @return  none
    505           */

   \                                 In  segment BANKED_CODE, align 1, keep-with-next
    506          void SampleApp_SendFlashMessage( uint16 flashTime )
   \                     SampleApp_SendFlashMessage:
    507          {
   \   000000   74F6         MOV     A,#-0xa
   \   000002   12....       LCALL   ?BANKED_ENTER_XDATA
   \   000005                ; Saved register size: 10
   \   000005                ; Auto size: 3
   \   000005   74FD         MOV     A,#-0x3
   \   000007   12....       LCALL   ?ALLOC_XSTACK8
    508            uint8 buffer[3];
    509            buffer[0] = (uint8)(SampleAppFlashCounter++);
   \   00000A   90....       MOV     DPTR,#SampleAppFlashCounter
   \   00000D   E0           MOVX    A,@DPTR
   \   00000E   85..82       MOV     DPL,?XSP + 0
   \   000011   85..83       MOV     DPH,?XSP + 1
   \   000014   F0           MOVX    @DPTR,A
   \   000015   90....       MOV     DPTR,#SampleAppFlashCounter
   \   000018   E0           MOVX    A,@DPTR
   \   000019   04           INC     A
   \   00001A   F0           MOVX    @DPTR,A
    510            buffer[1] = LO_UINT16( flashTime );
   \   00001B   7401         MOV     A,#0x1
   \   00001D   12....       LCALL   ?XSTACK_DISP0_8
   \   000020   EA           MOV     A,R2
   \   000021   F0           MOVX    @DPTR,A
    511            buffer[2] = HI_UINT16( flashTime );
   \   000022   7402         MOV     A,#0x2
   \   000024   12....       LCALL   ?XSTACK_DISP0_8
   \   000027   EB           MOV     A,R3
   \   000028   F0           MOVX    @DPTR,A
    512          
    513            if ( AF_DataRequest( &SampleApp_Flash_DstAddr, &SampleApp_epDesc,
    514                                 SAMPLEAPP_FLASH_CLUSTERID,
    515                                 3,
    516                                 buffer,
    517                                 &SampleApp_TransID,
    518                                 AF_DISCV_ROUTE,
    519                                 AF_DEFAULT_RADIUS ) == afStatus_SUCCESS )
   \   000029                ; Setup parameters for call to function AF_DataRequest
   \   000029   75..1E       MOV     ?V0 + 0,#0x1e
   \   00002C   78..         MOV     R0,#?V0 + 0
   \   00002E   12....       LCALL   ?PUSH_XSTACK_I_ONE
   \   000031   75....       MOV     ?V0 + 0,#SampleApp_TransID & 0xff
   \   000034   75....       MOV     ?V0 + 1,#(SampleApp_TransID >> 8) & 0xff
   \   000037   78..         MOV     R0,#?V0 + 0
   \   000039   12....       LCALL   ?PUSH_XSTACK_I_TWO
   \   00003C   7403         MOV     A,#0x3
   \   00003E   12....       LCALL   ?XSTACK_DISP0_8
   \   000041   8582..       MOV     ?V0 + 0,DPL
   \   000044   8583..       MOV     ?V0 + 1,DPH
   \   000047   78..         MOV     R0,#?V0 + 0
   \   000049   12....       LCALL   ?PUSH_XSTACK_I_TWO
   \   00004C   75..03       MOV     ?V0 + 0,#0x3
   \   00004F   75..00       MOV     ?V0 + 1,#0x0
   \   000052   78..         MOV     R0,#?V0 + 0
   \   000054   12....       LCALL   ?PUSH_XSTACK_I_TWO
   \   000057   75..02       MOV     ?V0 + 0,#0x2
   \   00005A   78..         MOV     R0,#?V0 + 0
   \   00005C   12....       LCALL   ?PUSH_XSTACK_I_TWO
   \   00005F   7920         MOV     R1,#0x20
   \   000061   7C..         MOV     R4,#SampleApp_epDesc & 0xff
   \   000063   7D..         MOV     R5,#(SampleApp_epDesc >> 8) & 0xff
   \   000065   7A..         MOV     R2,#SampleApp_Flash_DstAddr & 0xff
   \   000067   7B..         MOV     R3,#(SampleApp_Flash_DstAddr >> 8) & 0xff
   \   000069   12....       LCALL   ??AF_DataRequest?relay
   \   00006C   7409         MOV     A,#0x9
   \   00006E   12....       LCALL   ?DEALLOC_XSTACK8
    520            {
    521            }
    522            else
    523            {
    524              // Error occurred in request to send.
    525            }
    526          }
   \   000071   7403         MOV     A,#0x3
   \   000073   80..         SJMP    ??Subroutine6_0
    527          
    528          /*********************************************************************
    529          *********************************************************************/

   \                                 In  segment BANKED_CODE, align 1, keep-with-next
    530          void SampleApp_SendStringMessage( uint8* str,uint8 len ){
   \                     SampleApp_SendStringMessage:
   \   000000   74F6         MOV     A,#-0xa
   \   000002   12....       LCALL   ?BANKED_ENTER_XDATA
   \   000005                ; Saved register size: 10
   \   000005                ; Auto size: 0
   \   000005   E9           MOV     A,R1
   \   000006   FE           MOV     R6,A
    531            //uint8 buf[32];
    532            if ( AF_DataRequest( &SampleApp_String_DstAddr, &SampleApp_epDesc,
    533                                 SAMPLEAPP_STRING_CLUSTERID,
    534                                 len,
    535                                 str,
    536                                 &SampleApp_TransID,
    537                                 AF_DISCV_ROUTE,
    538                                 AF_DEFAULT_RADIUS ) == afStatus_SUCCESS )
   \   000007                ; Setup parameters for call to function AF_DataRequest
   \   000007   75..1E       MOV     ?V0 + 0,#0x1e
   \   00000A   78..         MOV     R0,#?V0 + 0
   \   00000C   12....       LCALL   ?PUSH_XSTACK_I_ONE
   \   00000F   75....       MOV     ?V0 + 0,#SampleApp_TransID & 0xff
   \   000012   75....       MOV     ?V0 + 1,#(SampleApp_TransID >> 8) & 0xff
   \   000015   78..         MOV     R0,#?V0 + 0
   \   000017   12....       LCALL   ?PUSH_XSTACK_I_TWO
   \   00001A   8A..         MOV     ?V0 + 0,R2
   \   00001C   8B..         MOV     ?V0 + 1,R3
   \   00001E   78..         MOV     R0,#?V0 + 0
   \   000020   12....       LCALL   ?PUSH_XSTACK_I_TWO
   \   000023   8E..         MOV     ?V0 + 0,R6
   \   000025   75..00       MOV     ?V0 + 1,#0x0
   \   000028   78..         MOV     R0,#?V0 + 0
   \   00002A   12....       LCALL   ?PUSH_XSTACK_I_TWO
   \   00002D   75..03       MOV     ?V0 + 0,#0x3
   \   000030   78..         MOV     R0,#?V0 + 0
   \   000032   12....       LCALL   ?PUSH_XSTACK_I_TWO
   \   000035   7920         MOV     R1,#0x20
   \   000037   7C..         MOV     R4,#SampleApp_epDesc & 0xff
   \   000039   7D..         MOV     R5,#(SampleApp_epDesc >> 8) & 0xff
   \   00003B   7A..         MOV     R2,#SampleApp_String_DstAddr & 0xff
   \   00003D   7B..         MOV     R3,#(SampleApp_String_DstAddr >> 8) & 0xff
   \   00003F   02....       LJMP    ?Subroutine2 & 0xFFFF
    539            {
    540            }
    541            else
    542            {
    543              // Error occurred in request to send.
    544            }
    545          }

   \                                 In  segment BANK_RELAYS, align 1
   \                     ??SampleApp_Init?relay:
   \   000000   12....       LCALL   ?BDISPATCH
   \   000003   ......       DC24    SampleApp_Init

   \                                 In  segment BANK_RELAYS, align 1
   \                     ??SampleApp_SerialCMD?relay:
   \   000000   12....       LCALL   ?BDISPATCH
   \   000003   ......       DC24    SampleApp_SerialCMD

   \                                 In  segment BANK_RELAYS, align 1
   \                     ??SampleApp_ProcessEvent?relay:
   \   000000   12....       LCALL   ?BDISPATCH
   \   000003   ......       DC24    SampleApp_ProcessEvent

   \                                 In  segment BANK_RELAYS, align 1
   \                     ??SampleApp_HandleKeys?relay:
   \   000000   12....       LCALL   ?BDISPATCH
   \   000003   ......       DC24    SampleApp_HandleKeys

   \                                 In  segment BANK_RELAYS, align 1
   \                     ??SampleApp_MessageMSGCB?relay:
   \   000000   12....       LCALL   ?BDISPATCH
   \   000003   ......       DC24    SampleApp_MessageMSGCB

   \                                 In  segment BANK_RELAYS, align 1
   \                     ??SampleApp_SendPeriodicMessage?relay:
   \   000000   12....       LCALL   ?BDISPATCH
   \   000003   ......       DC24    SampleApp_SendPeriodicMessage

   \                                 In  segment BANK_RELAYS, align 1
   \                     ??SampleApp_SendFlashMessage?relay:
   \   000000   12....       LCALL   ?BDISPATCH
   \   000003   ......       DC24    SampleApp_SendFlashMessage

   \                                 In  segment BANK_RELAYS, align 1
   \                     ??SampleApp_SendStringMessage?relay:
   \   000000   12....       LCALL   ?BDISPATCH
   \   000003   ......       DC24    SampleApp_SendStringMessage

   \                                 In  segment XDATA_ROM_C, align 1
   \                     `?<Constant "Group 1">`:
   \   000000   47726F75     DB "Group 1"
   \            70203100

   \                                 In  segment XDATA_ROM_C, align 1
   \                     `?<Constant "UART IS OK!\\r\\n">`:
   \   000000   55415254     DB "UART IS OK!\015\012"
   \            20495320
   \            4F4B210D
   \            0A00    

   \                                 In  segment XDATA_ROM_C, align 1
   \                     `?<Constant "1\\r\\n">`:
   \   000000   310D0A00     DB "1\015\012"

   \                                 In  segment XDATA_ROM_C, align 1
   \                     `?<Constant "0\\r\\n">`:
   \   000000   300D0A00     DB "0\015\012"

   \                                 In  segment XDATA_ROM_C, align 1
   \                     `?<Constant "error\\r\\n">`:
   \   000000   6572726F     DB "error\015\012"
   \            720D0A00

   Maximum stack usage in bytes:

     Function                       ISTACK PSTACK XSTACK
     --------                       ------ ------ ------
     SampleApp_HandleKeys               0      0      0
     SampleApp_Init                     0      0     14
       -> afRegister                    0      0     22
       -> RegisterForKeys               0      0     22
       -> osal_memcpy                   0      0     28
       -> aps_AddGroup                  0      0     22
       -> RegisterForKeys               0      0     22
       -> MT_UartInit                   0      0     22
       -> MT_UartRegisterTaskID         0      0     22
       -> HalUARTWrite                  0      0     22
       -> HalLedSet                     0      0     22
       -> HalLedSet                     0      0     22
     SampleApp_MessageMSGCB             0      0     24
       -> HalLedBlink                   0      0     24
       -> HalUARTWrite                  0      0     24
       -> HalLedSet                     0      0     24
       -> HalUARTWrite                  0      0     24
       -> HalLedSet                     0      0     24
       -> HalUARTWrite                  0      0     24
     SampleApp_ProcessEvent             0      0     12
       -> osal_msg_receive              0      0     24
       -> osal_msg_deallocate           0      0     24
       -> osal_msg_receive              0      0     24
       -> SampleApp_SerialCMD           0      0     24
       -> SampleApp_MessageMSGCB        0      0     24
       -> SampleApp_SendPeriodicMessage
                                        0      0     24
       -> osal_rand                     0      0     24
       -> osal_start_timerEx            0      0     24
       -> HalLedBlink                   0      0     24
     SampleApp_SendFlashMessage         1      0     22
       -> AF_DataRequest                0      0     44
     SampleApp_SendPeriodicMessage      0      0     31
       -> AF_DataRequest                0      0     38
     SampleApp_SendStringMessage        0      0     30
       -> AF_DataRequest                0      0     38
     SampleApp_SerialCMD                0      0     23
       -> HalUARTWrite                  0      0     22
       -> SampleApp_SendStringMessage
                                        0      0     22


   Segment part sizes:

     Function/Label                        Bytes
     --------------                        -----
     _A_P1                                    1
     P1DIR                                    1
     SampleApp_ClusterList                    6
     SampleApp_SimpleDesc                    12
     SampleApp_epDesc                         6
     SampleApp_TaskID                         1
     SampleApp_NwkState                       1
     SampleApp_TransID                        1
     SampleApp_Periodic_DstAddr              12
     SampleApp_Flash_DstAddr                 12
     SampleApp_String_DstAddr                12
     SampleApp_Group                         18
     SampleAppPeriodicCounter                 1
     SampleAppFlashCounter                    1
     SampleApp_Init                         215
     ?Subroutine0                             5
     SampleApp_SerialCMD                     45
     ?Subroutine4                            10
     SampleApp_ProcessEvent                 161
     ?Subroutine1                             5
     SampleApp_HandleKeys                     3
     SampleApp_MessageMSGCB                 185
     ?Subroutine5                            10
     ?Subroutine3                            15
     SampleApp_SendPeriodicMessage           61
     ?Subroutine2                             5
     ??Subroutine6_0                          8
     SampleApp_SendFlashMessage             117
     SampleApp_SendStringMessage             66
     ??SampleApp_Init?relay                   6
     ??SampleApp_SerialCMD?relay              6
     ??SampleApp_ProcessEvent?relay           6
     ??SampleApp_HandleKeys?relay             6
     ??SampleApp_MessageMSGCB?relay           6
     ??SampleApp_SendPeriodicMessage?relay    6
     ??SampleApp_SendFlashMessage?relay       6
     ??SampleApp_SendStringMessage?relay      6
     ?<Constant "Group 1">                    8
     ?<Constant "UART IS OK!\r\n">           14
     ?<Constant "1\r\n">                      4
     ?<Constant "0\r\n">                      4
     ?<Constant "error\r\n">                  8

 
 911 bytes in segment BANKED_CODE
  48 bytes in segment BANK_RELAYS
   2 bytes in segment SFR_AN
  56 bytes in segment XDATA_ROM_C
  65 bytes in segment XDATA_Z
 
 959 bytes of CODE  memory
  56 bytes of CONST memory
   0 bytes of DATA  memory (+ 2 bytes shared)
  65 bytes of XDATA memory

Errors: none
Warnings: 1
